
fw/fw_jump.elf:     file format elf64-littleriscv


Disassembly of section .text:

0000000080000000 <_fw_start>:
    80000000:	00050433          	add	s0,a0,zero
    80000004:	000584b3          	add	s1,a1,zero
    80000008:	00060933          	add	s2,a2,zero
    8000000c:	634000ef          	jal	ra,80000640 <fw_boot_hart>
    80000010:	00050833          	add	a6,a0,zero
    80000014:	00040533          	add	a0,s0,zero
    80000018:	000485b3          	add	a1,s1,zero
    8000001c:	00090633          	add	a2,s2,zero
    80000020:	58fd                	li	a7,-1
    80000022:	01180463          	beq	a6,a7,8000002a <_try_lottery>
    80000026:	13051d63          	bne	a0,a6,80000160 <_wait_relocate_copy_done>

000000008000002a <_try_lottery>:
    8000002a:	00000817          	auipc	a6,0x0
    8000002e:	48e80813          	addi	a6,a6,1166 # 800004b8 <_relocate_lottery>
    80000032:	4885                	li	a7,1
    80000034:	0118282f          	amoadd.w	a6,a7,(a6)
    80000038:	12081463          	bnez	a6,80000160 <_wait_relocate_copy_done>
    8000003c:	00000297          	auipc	t0,0x0
    80000040:	48c28293          	addi	t0,t0,1164 # 800004c8 <_load_start>
    80000044:	00000317          	auipc	t1,0x0
    80000048:	fbc30313          	addi	t1,t1,-68 # 80000000 <_fw_start>
    8000004c:	0062b023          	sd	t1,0(t0)

0000000080000050 <_relocate>:
    80000050:	00000297          	auipc	t0,0x0
    80000054:	48028293          	addi	t0,t0,1152 # 800004d0 <_link_start>
    80000058:	0002b283          	ld	t0,0(t0)
    8000005c:	00000317          	auipc	t1,0x0
    80000060:	47c30313          	addi	t1,t1,1148 # 800004d8 <_link_end>
    80000064:	00033303          	ld	t1,0(t1)
    80000068:	00000397          	auipc	t2,0x0
    8000006c:	46038393          	addi	t2,t2,1120 # 800004c8 <_load_start>
    80000070:	0003b383          	ld	t2,0(t2)
    80000074:	40530e33          	sub	t3,t1,t0
    80000078:	9e1e                	add	t3,t3,t2
    8000007a:	12728363          	beq	t0,t2,800001a0 <_relocate_done>
    8000007e:	00000e97          	auipc	t4,0x0
    80000082:	122e8e93          	addi	t4,t4,290 # 800001a0 <_relocate_done>
    80000086:	407e8eb3          	sub	t4,t4,t2
    8000008a:	9e96                	add	t4,t4,t0
    8000008c:	0653c663          	blt	t2,t0,800000f8 <_relocate_copy_to_upper>

0000000080000090 <_relocate_copy_to_lower>:
    80000090:	0463db63          	ble	t1,t2,800000e6 <_relocate_copy_to_lower_loop>
    80000094:	00000e17          	auipc	t3,0x0
    80000098:	424e0e13          	addi	t3,t3,1060 # 800004b8 <_relocate_lottery>
    8000009c:	007e4563          	blt	t3,t2,800000a6 <_relocate_copy_to_lower+0x16>
    800000a0:	006e5363          	ble	t1,t3,800000a6 <_relocate_copy_to_lower+0x16>
    800000a4:	a1b5                	j	80000510 <_start_hang>
    800000a6:	00000e17          	auipc	t3,0x0
    800000aa:	41ae0e13          	addi	t3,t3,1050 # 800004c0 <_boot_status>
    800000ae:	007e4563          	blt	t3,t2,800000b8 <_relocate_copy_to_lower+0x28>
    800000b2:	006e5363          	ble	t1,t3,800000b8 <_relocate_copy_to_lower+0x28>
    800000b6:	a9a9                	j	80000510 <_start_hang>
    800000b8:	00000e17          	auipc	t3,0x0
    800000bc:	f98e0e13          	addi	t3,t3,-104 # 80000050 <_relocate>
    800000c0:	00000f17          	auipc	t5,0x0
    800000c4:	0e0f0f13          	addi	t5,t5,224 # 800001a0 <_relocate_done>
    800000c8:	007e4563          	blt	t3,t2,800000d2 <_relocate_copy_to_lower+0x42>
    800000cc:	006e5363          	ble	t1,t3,800000d2 <_relocate_copy_to_lower+0x42>
    800000d0:	a181                	j	80000510 <_start_hang>
    800000d2:	007f4563          	blt	t5,t2,800000dc <_relocate_copy_to_lower+0x4c>
    800000d6:	006f5363          	ble	t1,t5,800000dc <_relocate_copy_to_lower+0x4c>
    800000da:	a91d                	j	80000510 <_start_hang>
    800000dc:	01c3c563          	blt	t2,t3,800000e6 <_relocate_copy_to_lower_loop>
    800000e0:	01e3d363          	ble	t5,t2,800000e6 <_relocate_copy_to_lower_loop>
    800000e4:	a135                	j	80000510 <_start_hang>

00000000800000e6 <_relocate_copy_to_lower_loop>:
    800000e6:	0003be03          	ld	t3,0(t2)
    800000ea:	01c2b023          	sd	t3,0(t0)
    800000ee:	02a1                	addi	t0,t0,8
    800000f0:	03a1                	addi	t2,t2,8
    800000f2:	fe62cae3          	blt	t0,t1,800000e6 <_relocate_copy_to_lower_loop>
    800000f6:	8e82                	jr	t4

00000000800000f8 <_relocate_copy_to_upper>:
    800000f8:	05c2db63          	ble	t3,t0,8000014e <_relocate_copy_to_upper_loop>
    800000fc:	00000397          	auipc	t2,0x0
    80000100:	3bc38393          	addi	t2,t2,956 # 800004b8 <_relocate_lottery>
    80000104:	0053c563          	blt	t2,t0,8000010e <_relocate_copy_to_upper+0x16>
    80000108:	01c3d363          	ble	t3,t2,8000010e <_relocate_copy_to_upper+0x16>
    8000010c:	a111                	j	80000510 <_start_hang>
    8000010e:	00000397          	auipc	t2,0x0
    80000112:	3b238393          	addi	t2,t2,946 # 800004c0 <_boot_status>
    80000116:	0053c563          	blt	t2,t0,80000120 <_relocate_copy_to_upper+0x28>
    8000011a:	01c3d363          	ble	t3,t2,80000120 <_relocate_copy_to_upper+0x28>
    8000011e:	aecd                	j	80000510 <_start_hang>
    80000120:	00000397          	auipc	t2,0x0
    80000124:	f3038393          	addi	t2,t2,-208 # 80000050 <_relocate>
    80000128:	00000f17          	auipc	t5,0x0
    8000012c:	078f0f13          	addi	t5,t5,120 # 800001a0 <_relocate_done>
    80000130:	0053c563          	blt	t2,t0,8000013a <_relocate_copy_to_upper+0x42>
    80000134:	01c3d363          	ble	t3,t2,8000013a <_relocate_copy_to_upper+0x42>
    80000138:	aee1                	j	80000510 <_start_hang>
    8000013a:	005f4563          	blt	t5,t0,80000144 <_relocate_copy_to_upper+0x4c>
    8000013e:	01cf5363          	ble	t3,t5,80000144 <_relocate_copy_to_upper+0x4c>
    80000142:	a6f9                	j	80000510 <_start_hang>
    80000144:	0072c563          	blt	t0,t2,8000014e <_relocate_copy_to_upper_loop>
    80000148:	01e2d363          	ble	t5,t0,8000014e <_relocate_copy_to_upper_loop>
    8000014c:	a6d1                	j	80000510 <_start_hang>

000000008000014e <_relocate_copy_to_upper_loop>:
    8000014e:	1e61                	addi	t3,t3,-8
    80000150:	1361                	addi	t1,t1,-8
    80000152:	000e3383          	ld	t2,0(t3)
    80000156:	00733023          	sd	t2,0(t1)
    8000015a:	fe62cae3          	blt	t0,t1,8000014e <_relocate_copy_to_upper_loop>
    8000015e:	8e82                	jr	t4

0000000080000160 <_wait_relocate_copy_done>:
    80000160:	00000297          	auipc	t0,0x0
    80000164:	ea028293          	addi	t0,t0,-352 # 80000000 <_fw_start>
    80000168:	00000317          	auipc	t1,0x0
    8000016c:	36830313          	addi	t1,t1,872 # 800004d0 <_link_start>
    80000170:	00033303          	ld	t1,0(t1)
    80000174:	2a628663          	beq	t0,t1,80000420 <_wait_for_boot_hart>
    80000178:	00000397          	auipc	t2,0x0
    8000017c:	34838393          	addi	t2,t2,840 # 800004c0 <_boot_status>
    80000180:	00000e17          	auipc	t3,0x0
    80000184:	2a0e0e13          	addi	t3,t3,672 # 80000420 <_wait_for_boot_hart>
    80000188:	405e0e33          	sub	t3,t3,t0
    8000018c:	9e1a                	add	t3,t3,t1
    8000018e:	4e85                	li	t4,1
    80000190:	0003bf03          	ld	t5,0(t2)
    80000194:	0001                	nop
    80000196:	0001                	nop
    80000198:	0001                	nop
    8000019a:	ffdf4ae3          	blt	t5,t4,8000018e <_wait_relocate_copy_done+0x2e>
    8000019e:	8e02                	jr	t3

00000000800001a0 <_relocate_done>:
    800001a0:	00000297          	auipc	t0,0x0
    800001a4:	32028293          	addi	t0,t0,800 # 800004c0 <_boot_status>
    800001a8:	00000317          	auipc	t1,0x0
    800001ac:	32830313          	addi	t1,t1,808 # 800004d0 <_link_start>
    800001b0:	00033303          	ld	t1,0(t1)
    800001b4:	00000397          	auipc	t2,0x0
    800001b8:	31438393          	addi	t2,t2,788 # 800004c8 <_load_start>
    800001bc:	0003b383          	ld	t2,0(t2)
    800001c0:	406282b3          	sub	t0,t0,t1
    800001c4:	929e                	add	t0,t0,t2
    800001c6:	4305                	li	t1,1
    800001c8:	0062b023          	sd	t1,0(t0)
    800001cc:	0330000f          	fence	rw,rw
    800001d0:	4081                	li	ra,0
    800001d2:	42e000ef          	jal	ra,80000600 <_reset_regs>
    800001d6:	00013a17          	auipc	s4,0x13
    800001da:	e2aa0a13          	addi	s4,s4,-470 # 80013000 <_bss_start>
    800001de:	00017a97          	auipc	s5,0x17
    800001e2:	b0aa8a93          	addi	s5,s5,-1270 # 80016ce8 <_bss_end>

00000000800001e6 <_bss_zero>:
    800001e6:	000a3023          	sd	zero,0(s4)
    800001ea:	0a21                	addi	s4,s4,8
    800001ec:	ff5a4de3          	blt	s4,s5,800001e6 <_bss_zero>
    800001f0:	00000a17          	auipc	s4,0x0
    800001f4:	320a0a13          	addi	s4,s4,800 # 80000510 <_start_hang>
    800001f8:	305a1073          	csrw	mtvec,s4
    800001fc:	00017a17          	auipc	s4,0x17
    80000200:	e04a0a13          	addi	s4,s4,-508 # 80017000 <_fw_end>
    80000204:	6a89                	lui	s5,0x2
    80000206:	015a0133          	add	sp,s4,s5
    8000020a:	00050433          	add	s0,a0,zero
    8000020e:	000584b3          	add	s1,a1,zero
    80000212:	00060933          	add	s2,a2,zero
    80000216:	000689b3          	add	s3,a3,zero
    8000021a:	00070a33          	add	s4,a4,zero
    8000021e:	42a000ef          	jal	ra,80000648 <fw_save_info>
    80000222:	00040533          	add	a0,s0,zero
    80000226:	000485b3          	add	a1,s1,zero
    8000022a:	00090633          	add	a2,s2,zero
    8000022e:	000986b3          	add	a3,s3,zero
    80000232:	000a0733          	add	a4,s4,zero
    80000236:	00050433          	add	s0,a0,zero
    8000023a:	000584b3          	add	s1,a1,zero
    8000023e:	00060933          	add	s2,a2,zero
    80000242:	000689b3          	add	s3,a3,zero
    80000246:	00070a33          	add	s4,a4,zero
    8000024a:	506020ef          	jal	ra,80002750 <fw_platform_init>
    8000024e:	000502b3          	add	t0,a0,zero
    80000252:	00040533          	add	a0,s0,zero
    80000256:	000485b3          	add	a1,s1,zero
    8000025a:	00090633          	add	a2,s2,zero
    8000025e:	000986b3          	add	a3,s3,zero
    80000262:	000a0733          	add	a4,s4,zero
    80000266:	000285b3          	add	a1,t0,zero
    8000026a:	00012717          	auipc	a4,0x12
    8000026e:	e7e70713          	addi	a4,a4,-386 # 800120e8 <platform>
    80000272:	05076b83          	lwu	s7,80(a4)
    80000276:	05476c03          	lwu	s8,84(a4)
    8000027a:	00017217          	auipc	tp,0x17
    8000027e:	d8620213          	addi	tp,tp,-634 # 80017000 <_fw_end>
    80000282:	038b87b3          	mul	a5,s7,s8
    80000286:	923e                	add	tp,tp,a5
    80000288:	00020e33          	add	t3,tp,zero
    8000028c:	4385                	li	t2,1
    8000028e:	4301                	li	t1,0

0000000080000290 <_scratch_init>:
    80000290:	000e0233          	add	tp,t3,zero
    80000294:	026c07b3          	mul	a5,s8,t1
    80000298:	40f20233          	sub	tp,tp,a5
    8000029c:	6785                	lui	a5,0x1
    8000029e:	40f20233          	sub	tp,tp,a5
    800002a2:	00000717          	auipc	a4,0x0
    800002a6:	d5e70713          	addi	a4,a4,-674 # 80000000 <_fw_start>
    800002aa:	00017797          	auipc	a5,0x17
    800002ae:	d5678793          	addi	a5,a5,-682 # 80017000 <_fw_end>
    800002b2:	038b82b3          	mul	t0,s7,s8
    800002b6:	9796                	add	a5,a5,t0
    800002b8:	8f99                	sub	a5,a5,a4
    800002ba:	00e23023          	sd	a4,0(tp) # 0 <_fw_start-0x80000000>
    800002be:	00f23423          	sd	a5,8(tp) # 8 <_fw_start-0x7ffffff8>
    800002c2:	00050433          	add	s0,a0,zero
    800002c6:	000584b3          	add	s1,a1,zero
    800002ca:	00060933          	add	s2,a2,zero
    800002ce:	382000ef          	jal	ra,80000650 <fw_next_arg1>
    800002d2:	00a23823          	sd	a0,16(tp) # 10 <_fw_start-0x7ffffff0>
    800002d6:	00040533          	add	a0,s0,zero
    800002da:	000485b3          	add	a1,s1,zero
    800002de:	00090633          	add	a2,s2,zero
    800002e2:	00050433          	add	s0,a0,zero
    800002e6:	000584b3          	add	s1,a1,zero
    800002ea:	00060933          	add	s2,a2,zero
    800002ee:	372000ef          	jal	ra,80000660 <fw_next_addr>
    800002f2:	00a23c23          	sd	a0,24(tp) # 18 <_fw_start-0x7fffffe8>
    800002f6:	00040533          	add	a0,s0,zero
    800002fa:	000485b3          	add	a1,s1,zero
    800002fe:	00090633          	add	a2,s2,zero
    80000302:	00050433          	add	s0,a0,zero
    80000306:	000584b3          	add	s1,a1,zero
    8000030a:	00060933          	add	s2,a2,zero
    8000030e:	362000ef          	jal	ra,80000670 <fw_next_mode>
    80000312:	02a23023          	sd	a0,32(tp) # 20 <_fw_start-0x7fffffe0>
    80000316:	00040533          	add	a0,s0,zero
    8000031a:	000485b3          	add	a1,s1,zero
    8000031e:	00090633          	add	a2,s2,zero
    80000322:	00000717          	auipc	a4,0x0
    80000326:	11670713          	addi	a4,a4,278 # 80000438 <_start_warm>
    8000032a:	02e23423          	sd	a4,40(tp) # 28 <_fw_start-0x7fffffd8>
    8000032e:	00012717          	auipc	a4,0x12
    80000332:	dba70713          	addi	a4,a4,-582 # 800120e8 <platform>
    80000336:	02e23823          	sd	a4,48(tp) # 30 <_fw_start-0x7fffffd0>
    8000033a:	00000717          	auipc	a4,0x0
    8000033e:	1a670713          	addi	a4,a4,422 # 800004e0 <_hartid_to_scratch>
    80000342:	02e23c23          	sd	a4,56(tp) # 38 <_fw_start-0x7fffffc8>
    80000346:	00000717          	auipc	a4,0x0
    8000034a:	26870713          	addi	a4,a4,616 # 800005ae <_trap_exit>
    8000034e:	04e23023          	sd	a4,64(tp) # 40 <_fw_start-0x7fffffc0>
    80000352:	04023423          	sd	zero,72(tp) # 48 <_fw_start-0x7fffffb8>
    80000356:	00050433          	add	s0,a0,zero
    8000035a:	000584b3          	add	s1,a1,zero
    8000035e:	00060933          	add	s2,a2,zero
    80000362:	316000ef          	jal	ra,80000678 <fw_options>
    80000366:	04a23823          	sd	a0,80(tp) # 50 <_fw_start-0x7fffffb0>
    8000036a:	00040533          	add	a0,s0,zero
    8000036e:	000485b3          	add	a1,s1,zero
    80000372:	00090633          	add	a2,s2,zero
    80000376:	931e                	add	t1,t1,t2
    80000378:	f1734ce3          	blt	t1,s7,80000290 <_scratch_init>
    8000037c:	c9c1                	beqz	a1,8000040c <_fdt_reloc_done>
    8000037e:	56e1                	li	a3,-8
    80000380:	0ff00713          	li	a4,255
    80000384:	00050433          	add	s0,a0,zero
    80000388:	000584b3          	add	s1,a1,zero
    8000038c:	00060933          	add	s2,a2,zero
    80000390:	2c0000ef          	jal	ra,80000650 <fw_next_arg1>
    80000394:	00050333          	add	t1,a0,zero
    80000398:	00040533          	add	a0,s0,zero
    8000039c:	000485b3          	add	a1,s1,zero
    800003a0:	00090633          	add	a2,s2,zero
    800003a4:	06030463          	beqz	t1,8000040c <_fdt_reloc_done>
    800003a8:	06b30263          	beq	t1,a1,8000040c <_fdt_reloc_done>
    800003ac:	00d37333          	and	t1,t1,a3
    800003b0:	000582b3          	add	t0,a1,zero
    800003b4:	00d2f2b3          	and	t0,t0,a3
    800003b8:	0042e383          	lwu	t2,4(t0)
    800003bc:	00038e33          	add	t3,t2,zero
    800003c0:	010e5e13          	srli	t3,t3,0x10
    800003c4:	00ee7e33          	and	t3,t3,a4
    800003c8:	0e22                	slli	t3,t3,0x8
    800003ca:	00038eb3          	add	t4,t2,zero
    800003ce:	008ede93          	srli	t4,t4,0x8
    800003d2:	00eefeb3          	and	t4,t4,a4
    800003d6:	0ec2                	slli	t4,t4,0x10
    800003d8:	00038f33          	add	t5,t2,zero
    800003dc:	00ef7f33          	and	t5,t5,a4
    800003e0:	0f62                	slli	t5,t5,0x18
    800003e2:	0183d393          	srli	t2,t2,0x18
    800003e6:	00e3f3b3          	and	t2,t2,a4
    800003ea:	01c3e3b3          	or	t2,t2,t3
    800003ee:	01d3e3b3          	or	t2,t2,t4
    800003f2:	01e3e3b3          	or	t2,t2,t5
    800003f6:	939a                	add	t2,t2,t1
    800003f8:	00735a63          	ble	t2,t1,8000040c <_fdt_reloc_done>

00000000800003fc <_fdt_reloc_again>:
    800003fc:	0002be03          	ld	t3,0(t0)
    80000400:	01c33023          	sd	t3,0(t1)
    80000404:	02a1                	addi	t0,t0,8
    80000406:	0321                	addi	t1,t1,8
    80000408:	fe734ae3          	blt	t1,t2,800003fc <_fdt_reloc_again>

000000008000040c <_fdt_reloc_done>:
    8000040c:	4289                	li	t0,2
    8000040e:	00000317          	auipc	t1,0x0
    80000412:	0b230313          	addi	t1,t1,178 # 800004c0 <_boot_status>
    80000416:	00533023          	sd	t0,0(t1)
    8000041a:	0330000f          	fence	rw,rw
    8000041e:	a829                	j	80000438 <_start_warm>

0000000080000420 <_wait_for_boot_hart>:
    80000420:	4289                	li	t0,2
    80000422:	00000317          	auipc	t1,0x0
    80000426:	09e30313          	addi	t1,t1,158 # 800004c0 <_boot_status>
    8000042a:	00033303          	ld	t1,0(t1)
    8000042e:	0001                	nop
    80000430:	0001                	nop
    80000432:	0001                	nop
    80000434:	fe6296e3          	bne	t0,t1,80000420 <_wait_for_boot_hart>

0000000080000438 <_start_warm>:
    80000438:	4081                	li	ra,0
    8000043a:	1c6000ef          	jal	ra,80000600 <_reset_regs>
    8000043e:	30401073          	csrw	mie,zero
    80000442:	34401073          	csrw	mip,zero
    80000446:	00012717          	auipc	a4,0x12
    8000044a:	ca270713          	addi	a4,a4,-862 # 800120e8 <platform>
    8000044e:	05076b83          	lwu	s7,80(a4)
    80000452:	05476c03          	lwu	s8,84(a4)
    80000456:	06873c83          	ld	s9,104(a4)
    8000045a:	f1402b73          	csrr	s6,mhartid
    8000045e:	000c8e63          	beqz	s9,8000047a <_start_warm+0x42>
    80000462:	4701                	li	a4,0
    80000464:	000ce783          	lwu	a5,0(s9)
    80000468:	01678763          	beq	a5,s6,80000476 <_start_warm+0x3e>
    8000046c:	0c91                	addi	s9,s9,4
    8000046e:	0705                	addi	a4,a4,1
    80000470:	ff774ae3          	blt	a4,s7,80000464 <_start_warm+0x2c>
    80000474:	577d                	li	a4,-1
    80000476:	00070b33          	add	s6,a4,zero
    8000047a:	097b5b63          	ble	s7,s6,80000510 <_start_hang>
    8000047e:	00017217          	auipc	tp,0x17
    80000482:	b8220213          	addi	tp,tp,-1150 # 80017000 <_fw_end>
    80000486:	038b87b3          	mul	a5,s7,s8
    8000048a:	923e                	add	tp,tp,a5
    8000048c:	036c07b3          	mul	a5,s8,s6
    80000490:	40f20233          	sub	tp,tp,a5
    80000494:	6785                	lui	a5,0x1
    80000496:	40f20233          	sub	tp,tp,a5
    8000049a:	34021073          	csrw	mscratch,tp
    8000049e:	00020133          	add	sp,tp,zero
    800004a2:	00000717          	auipc	a4,0x0
    800004a6:	07e70713          	addi	a4,a4,126 # 80000520 <_trap_handler>
    800004aa:	30571073          	csrw	mtvec,a4
    800004ae:	34002573          	csrr	a0,mscratch
    800004b2:	1d6000ef          	jal	ra,80000688 <sbi_init>
    800004b6:	a8a9                	j	80000510 <_start_hang>

00000000800004b8 <_relocate_lottery>:
	...

00000000800004c0 <_boot_status>:
	...

00000000800004c8 <_load_start>:
    800004c8:	0000                	unimp
    800004ca:	8000                	0x8000
    800004cc:	0000                	unimp
	...

00000000800004d0 <_link_start>:
    800004d0:	0000                	unimp
    800004d2:	8000                	0x8000
    800004d4:	0000                	unimp
	...

00000000800004d8 <_link_end>:
    800004d8:	7000                	ld	s0,32(s0)
    800004da:	8001                	c.srli64	s0
    800004dc:	0000                	unimp
	...

00000000800004e0 <_hartid_to_scratch>:
    800004e0:	00012397          	auipc	t2,0x12
    800004e4:	c0838393          	addi	t2,t2,-1016 # 800120e8 <platform>
    800004e8:	0543e283          	lwu	t0,84(t2)
    800004ec:	0503e383          	lwu	t2,80(t2)
    800004f0:	40b383b3          	sub	t2,t2,a1
    800004f4:	025383b3          	mul	t2,t2,t0
    800004f8:	00017317          	auipc	t1,0x17
    800004fc:	b0830313          	addi	t1,t1,-1272 # 80017000 <_fw_end>
    80000500:	931e                	add	t1,t1,t2
    80000502:	6385                	lui	t2,0x1
    80000504:	40730533          	sub	a0,t1,t2
    80000508:	8082                	ret
    8000050a:	0001                	nop
    8000050c:	00000013          	nop

0000000080000510 <_start_hang>:
    80000510:	10500073          	wfi
    80000514:	bff5                	j	80000510 <_start_hang>
    80000516:	0001                	nop
    80000518:	00058533          	add	a0,a1,zero
    8000051c:	8082                	ret
    8000051e:	0001                	nop

0000000080000520 <_trap_handler>:
    80000520:	34021273          	csrrw	tp,mscratch,tp
    80000524:	04523423          	sd	t0,72(tp) # 48 <_fw_start-0x7fffffb8>
    80000528:	300022f3          	csrr	t0,mstatus
    8000052c:	00b2d293          	srli	t0,t0,0xb
    80000530:	0032f293          	andi	t0,t0,3
    80000534:	0032a293          	slti	t0,t0,3
    80000538:	12fd                	addi	t0,t0,-1
    8000053a:	00414133          	xor	sp,sp,tp
    8000053e:	0022f2b3          	and	t0,t0,sp
    80000542:	00414133          	xor	sp,sp,tp
    80000546:	005242b3          	xor	t0,tp,t0
    8000054a:	ee22bc23          	sd	sp,-264(t0)
    8000054e:	ee828113          	addi	sp,t0,-280
    80000552:	04823283          	ld	t0,72(tp) # 48 <_fw_start-0x7fffffb8>
    80000556:	f416                	sd	t0,40(sp)
    80000558:	34021273          	csrrw	tp,mscratch,tp
    8000055c:	341022f3          	csrr	t0,mepc
    80000560:	e216                	sd	t0,256(sp)
    80000562:	300022f3          	csrr	t0,mstatus
    80000566:	e616                	sd	t0,264(sp)
    80000568:	ea02                	sd	zero,272(sp)
    8000056a:	e002                	sd	zero,0(sp)
    8000056c:	e406                	sd	ra,8(sp)
    8000056e:	ec0e                	sd	gp,24(sp)
    80000570:	f012                	sd	tp,32(sp)
    80000572:	f81a                	sd	t1,48(sp)
    80000574:	fc1e                	sd	t2,56(sp)
    80000576:	e0a2                	sd	s0,64(sp)
    80000578:	e4a6                	sd	s1,72(sp)
    8000057a:	e8aa                	sd	a0,80(sp)
    8000057c:	ecae                	sd	a1,88(sp)
    8000057e:	f0b2                	sd	a2,96(sp)
    80000580:	f4b6                	sd	a3,104(sp)
    80000582:	f8ba                	sd	a4,112(sp)
    80000584:	fcbe                	sd	a5,120(sp)
    80000586:	e142                	sd	a6,128(sp)
    80000588:	e546                	sd	a7,136(sp)
    8000058a:	e94a                	sd	s2,144(sp)
    8000058c:	ed4e                	sd	s3,152(sp)
    8000058e:	f152                	sd	s4,160(sp)
    80000590:	f556                	sd	s5,168(sp)
    80000592:	f95a                	sd	s6,176(sp)
    80000594:	fd5e                	sd	s7,184(sp)
    80000596:	e1e2                	sd	s8,192(sp)
    80000598:	e5e6                	sd	s9,200(sp)
    8000059a:	e9ea                	sd	s10,208(sp)
    8000059c:	edee                	sd	s11,216(sp)
    8000059e:	f1f2                	sd	t3,224(sp)
    800005a0:	f5f6                	sd	t4,232(sp)
    800005a2:	f9fa                	sd	t5,240(sp)
    800005a4:	fdfe                	sd	t6,248(sp)
    800005a6:	00010533          	add	a0,sp,zero
    800005aa:	331010ef          	jal	ra,800020da <sbi_trap_handler>

00000000800005ae <_trap_exit>:
    800005ae:	00050133          	add	sp,a0,zero
    800005b2:	60a2                	ld	ra,8(sp)
    800005b4:	61e2                	ld	gp,24(sp)
    800005b6:	7202                	ld	tp,32(sp)
    800005b8:	7342                	ld	t1,48(sp)
    800005ba:	73e2                	ld	t2,56(sp)
    800005bc:	6406                	ld	s0,64(sp)
    800005be:	64a6                	ld	s1,72(sp)
    800005c0:	6546                	ld	a0,80(sp)
    800005c2:	65e6                	ld	a1,88(sp)
    800005c4:	7606                	ld	a2,96(sp)
    800005c6:	76a6                	ld	a3,104(sp)
    800005c8:	7746                	ld	a4,112(sp)
    800005ca:	77e6                	ld	a5,120(sp)
    800005cc:	680a                	ld	a6,128(sp)
    800005ce:	68aa                	ld	a7,136(sp)
    800005d0:	694a                	ld	s2,144(sp)
    800005d2:	69ea                	ld	s3,152(sp)
    800005d4:	7a0a                	ld	s4,160(sp)
    800005d6:	7aaa                	ld	s5,168(sp)
    800005d8:	7b4a                	ld	s6,176(sp)
    800005da:	7bea                	ld	s7,184(sp)
    800005dc:	6c0e                	ld	s8,192(sp)
    800005de:	6cae                	ld	s9,200(sp)
    800005e0:	6d4e                	ld	s10,208(sp)
    800005e2:	6dee                	ld	s11,216(sp)
    800005e4:	7e0e                	ld	t3,224(sp)
    800005e6:	7eae                	ld	t4,232(sp)
    800005e8:	7f4e                	ld	t5,240(sp)
    800005ea:	7fee                	ld	t6,248(sp)
    800005ec:	6292                	ld	t0,256(sp)
    800005ee:	34129073          	csrw	mepc,t0
    800005f2:	62b2                	ld	t0,264(sp)
    800005f4:	30029073          	csrw	mstatus,t0
    800005f8:	72a2                	ld	t0,40(sp)
    800005fa:	6142                	ld	sp,16(sp)
    800005fc:	30200073          	mret

0000000080000600 <_reset_regs>:
    80000600:	0000100f          	fence.i
    80000604:	4101                	li	sp,0
    80000606:	4181                	li	gp,0
    80000608:	4201                	li	tp,0
    8000060a:	4281                	li	t0,0
    8000060c:	4301                	li	t1,0
    8000060e:	4381                	li	t2,0
    80000610:	4401                	li	s0,0
    80000612:	4481                	li	s1,0
    80000614:	4681                	li	a3,0
    80000616:	4701                	li	a4,0
    80000618:	4781                	li	a5,0
    8000061a:	4801                	li	a6,0
    8000061c:	4881                	li	a7,0
    8000061e:	4901                	li	s2,0
    80000620:	4981                	li	s3,0
    80000622:	4a01                	li	s4,0
    80000624:	4a81                	li	s5,0
    80000626:	4b01                	li	s6,0
    80000628:	4b81                	li	s7,0
    8000062a:	4c01                	li	s8,0
    8000062c:	4c81                	li	s9,0
    8000062e:	4d01                	li	s10,0
    80000630:	4d81                	li	s11,0
    80000632:	4e01                	li	t3,0
    80000634:	4e81                	li	t4,0
    80000636:	4f01                	li	t5,0
    80000638:	4f81                	li	t6,0
    8000063a:	34005073          	csrwi	mscratch,0
    8000063e:	8082                	ret

0000000080000640 <fw_boot_hart>:
    80000640:	557d                	li	a0,-1
    80000642:	8082                	ret
    80000644:	00000013          	nop

0000000080000648 <fw_save_info>:
    80000648:	8082                	ret
    8000064a:	0001                	nop
    8000064c:	00000013          	nop

0000000080000650 <fw_next_arg1>:
    80000650:	4110051b          	addiw	a0,zero,1041
    80000654:	01551513          	slli	a0,a0,0x15
    80000658:	8082                	ret
    8000065a:	0001                	nop
    8000065c:	00000013          	nop

0000000080000660 <fw_next_addr>:
    80000660:	00000517          	auipc	a0,0x0
    80000664:	02050513          	addi	a0,a0,32 # 80000680 <_jump_addr>
    80000668:	6108                	ld	a0,0(a0)
    8000066a:	8082                	ret
    8000066c:	00000013          	nop

0000000080000670 <fw_next_mode>:
    80000670:	4505                	li	a0,1
    80000672:	8082                	ret
    80000674:	00000013          	nop

0000000080000678 <fw_options>:
    80000678:	00000533          	add	a0,zero,zero
    8000067c:	8082                	ret
    8000067e:	0001                	nop

0000000080000680 <_jump_addr>:
    80000680:	0000                	unimp
    80000682:	8020                	0x8020
    80000684:	0000                	unimp
	...

0000000080000688 <sbi_init>:
    80000688:	7155                	addi	sp,sp,-208
    8000068a:	e1a2                	sd	s0,192(sp)
    8000068c:	e586                	sd	ra,200(sp)
    8000068e:	fd26                	sd	s1,184(sp)
    80000690:	f94a                	sd	s2,176(sp)
    80000692:	f54e                	sd	s3,168(sp)
    80000694:	f152                	sd	s4,160(sp)
    80000696:	ed56                	sd	s5,152(sp)
    80000698:	e95a                	sd	s6,144(sp)
    8000069a:	e55e                	sd	s7,136(sp)
    8000069c:	e162                	sd	s8,128(sp)
    8000069e:	0980                	addi	s0,sp,208
    800006a0:	f14029f3          	csrr	s3,mhartid
    800006a4:	07f00793          	li	a5,127
    800006a8:	0009891b          	sext.w	s2,s3
    800006ac:	1b27ea63          	bltu	a5,s2,80000860 <sbi_init+0x1d8>
    800006b0:	84aa                	mv	s1,a0
    800006b2:	7908                	ld	a0,48(a0)
    800006b4:	1a050663          	beqz	a0,80000860 <sbi_init+0x1d8>
    800006b8:	05052a03          	lw	s4,80(a0)
    800006bc:	85ca                	mv	a1,s2
    800006be:	393000ef          	jal	ra,80001250 <sbi_platform_hart_index>
    800006c2:	2501                	sext.w	a0,a0
    800006c4:	19457e63          	bleu	s4,a0,80000860 <sbi_init+0x1d8>
    800006c8:	709c                	ld	a5,32(s1)
    800006ca:	4705                	li	a4,1
    800006cc:	1ae78363          	beq	a5,a4,80000872 <sbi_init+0x1ea>
    800006d0:	18078a63          	beqz	a5,80000864 <sbi_init+0x1dc>
    800006d4:	470d                	li	a4,3
    800006d6:	18e79563          	bne	a5,a4,80000860 <sbi_init+0x1d8>
    800006da:	4585                	li	a1,1
    800006dc:	00013517          	auipc	a0,0x13
    800006e0:	92450513          	addi	a0,a0,-1756 # 80013000 <_bss_start>
    800006e4:	1bd020ef          	jal	ra,800030a0 <atomic_xchg>
    800006e8:	1a050263          	beqz	a0,8000088c <sbi_init+0x204>
    800006ec:	30402b73          	csrr	s6,mie
    800006f0:	30446073          	csrsi	mie,8
    800006f4:	00013517          	auipc	a0,0x13
    800006f8:	92450513          	addi	a0,a0,-1756 # 80013018 <coldboot_lock>
    800006fc:	04000a93          	li	s5,64
    80000700:	315020ef          	jal	ra,80003214 <spin_lock>
    80000704:	03594a3b          	divw	s4,s2,s5
    80000708:	4705                	li	a4,1
    8000070a:	00013517          	auipc	a0,0x13
    8000070e:	90e50513          	addi	a0,a0,-1778 # 80013018 <coldboot_lock>
    80000712:	03596abb          	remw	s5,s2,s5
    80000716:	003a1793          	slli	a5,s4,0x3
    8000071a:	00013a17          	auipc	s4,0x13
    8000071e:	9e6a0a13          	addi	s4,s4,-1562 # 80013100 <coldboot_wait_hmask>
    80000722:	9a3e                	add	s4,s4,a5
    80000724:	000a3783          	ld	a5,0(s4)
    80000728:	01571ab3          	sll	s5,a4,s5
    8000072c:	0157e7b3          	or	a5,a5,s5
    80000730:	00fa3023          	sd	a5,0(s4)
    80000734:	2ff020ef          	jal	ra,80003232 <spin_unlock>
    80000738:	00013717          	auipc	a4,0x13
    8000073c:	8d870713          	addi	a4,a4,-1832 # 80013010 <coldboot_done>
    80000740:	631c                	ld	a5,0(a4)
    80000742:	0230000f          	fence	r,rw
    80000746:	eb99                	bnez	a5,8000075c <sbi_init+0xd4>
    80000748:	10500073          	wfi
    8000074c:	344027f3          	csrr	a5,mip
    80000750:	8ba1                	andi	a5,a5,8
    80000752:	dbfd                	beqz	a5,80000748 <sbi_init+0xc0>
    80000754:	631c                	ld	a5,0(a4)
    80000756:	0230000f          	fence	r,rw
    8000075a:	d7fd                	beqz	a5,80000748 <sbi_init+0xc0>
    8000075c:	00013517          	auipc	a0,0x13
    80000760:	8bc50513          	addi	a0,a0,-1860 # 80013018 <coldboot_lock>
    80000764:	2b1020ef          	jal	ra,80003214 <spin_lock>
    80000768:	000a3783          	ld	a5,0(s4)
    8000076c:	fffaca93          	not	s5,s5
    80000770:	00013517          	auipc	a0,0x13
    80000774:	8a850513          	addi	a0,a0,-1880 # 80013018 <coldboot_lock>
    80000778:	0157fab3          	and	s5,a5,s5
    8000077c:	015a3023          	sd	s5,0(s4)
    80000780:	2b3020ef          	jal	ra,80003232 <spin_unlock>
    80000784:	304b1073          	csrw	mie,s6
    80000788:	f14027f3          	csrr	a5,mhartid
    8000078c:	1782                	slli	a5,a5,0x20
    8000078e:	83f5                	srli	a5,a5,0x1d
    80000790:	00013717          	auipc	a4,0x13
    80000794:	2c870713          	addi	a4,a4,712 # 80013a58 <hartid_to_domain_table>
    80000798:	97ba                	add	a5,a5,a4
    8000079a:	6388                	ld	a0,0(a5)
    8000079c:	85ca                	mv	a1,s2
    8000079e:	100070ef          	jal	ra,8000789e <sbi_hsm_hart_get_state>
    800007a2:	0a054f63          	bltz	a0,80000860 <sbi_init+0x1d8>
    800007a6:	4791                	li	a5,4
    800007a8:	1af50163          	beq	a0,a5,8000094a <sbi_init+0x2c2>
    800007ac:	00013a97          	auipc	s5,0x13
    800007b0:	85ca8a93          	addi	s5,s5,-1956 # 80013008 <init_count_offset>
    800007b4:	000ab783          	ld	a5,0(s5)
    800007b8:	0304ba03          	ld	s4,48(s1)
    800007bc:	c3d5                	beqz	a5,80000860 <sbi_init+0x1d8>
    800007be:	4601                	li	a2,0
    800007c0:	85ca                	mv	a1,s2
    800007c2:	8526                	mv	a0,s1
    800007c4:	21a070ef          	jal	ra,800079de <sbi_hsm_init>
    800007c8:	ed41                	bnez	a0,80000860 <sbi_init+0x1d8>
    800007ca:	0a0a0b63          	beqz	s4,80000880 <sbi_init+0x1f8>
    800007ce:	058a3783          	ld	a5,88(s4)
    800007d2:	639c                	ld	a5,0(a5)
    800007d4:	c399                	beqz	a5,800007da <sbi_init+0x152>
    800007d6:	9782                	jalr	a5
    800007d8:	e541                	bnez	a0,80000860 <sbi_init+0x1d8>
    800007da:	4581                	li	a1,0
    800007dc:	8526                	mv	a0,s1
    800007de:	1d2050ef          	jal	ra,800059b0 <sbi_hart_init>
    800007e2:	ed3d                	bnez	a0,80000860 <sbi_init+0x1d8>
    800007e4:	058a3783          	ld	a5,88(s4)
    800007e8:	6fbc                	ld	a5,88(a5)
    800007ea:	c399                	beqz	a5,800007f0 <sbi_init+0x168>
    800007ec:	9782                	jalr	a5
    800007ee:	e92d                	bnez	a0,80000860 <sbi_init+0x1d8>
    800007f0:	4581                	li	a1,0
    800007f2:	8526                	mv	a0,s1
    800007f4:	083000ef          	jal	ra,80001076 <sbi_ipi_init>
    800007f8:	e525                	bnez	a0,80000860 <sbi_init+0x1d8>
    800007fa:	4581                	li	a1,0
    800007fc:	8526                	mv	a0,s1
    800007fe:	59a010ef          	jal	ra,80001d98 <sbi_tlb_init>
    80000802:	ed39                	bnez	a0,80000860 <sbi_init+0x1d8>
    80000804:	4581                	li	a1,0
    80000806:	8526                	mv	a0,s1
    80000808:	7af000ef          	jal	ra,800017b6 <sbi_timer_init>
    8000080c:	e931                	bnez	a0,80000860 <sbi_init+0x1d8>
    8000080e:	8526                	mv	a0,s1
    80000810:	67b040ef          	jal	ra,8000568a <sbi_hart_pmp_configure>
    80000814:	e531                	bnez	a0,80000860 <sbi_init+0x1d8>
    80000816:	000a0863          	beqz	s4,80000826 <sbi_init+0x19e>
    8000081a:	058a3783          	ld	a5,88(s4)
    8000081e:	679c                	ld	a5,8(a5)
    80000820:	c399                	beqz	a5,80000826 <sbi_init+0x19e>
    80000822:	9782                	jalr	a5
    80000824:	ed15                	bnez	a0,80000860 <sbi_init+0x1d8>
    80000826:	000ab783          	ld	a5,0(s5)
    8000082a:	97a6                	add	a5,a5,s1
    8000082c:	6398                	ld	a4,0(a5)
    8000082e:	85ca                	mv	a1,s2
    80000830:	8526                	mv	a0,s1
    80000832:	0705                	addi	a4,a4,1
    80000834:	e398                	sd	a4,0(a5)
    80000836:	178070ef          	jal	ra,800079ae <sbi_hsm_prepare_next_jump>
    8000083a:	7094                	ld	a3,32(s1)
    8000083c:	6c90                	ld	a2,24(s1)
    8000083e:	688c                	ld	a1,16(s1)
    80000840:	02099513          	slli	a0,s3,0x20
    80000844:	4701                	li	a4,0
    80000846:	9101                	srli	a0,a0,0x20
    80000848:	70d060ef          	jal	ra,80007754 <sbi_hart_switch_mode>
    8000084c:	0000f597          	auipc	a1,0xf
    80000850:	7b458593          	addi	a1,a1,1972 # 80010000 <__func__.1950>
    80000854:	00010517          	auipc	a0,0x10
    80000858:	91c50513          	addi	a0,a0,-1764 # 80010170 <__func__.1950+0x170>
    8000085c:	5fe030ef          	jal	ra,80003e5a <sbi_printf>
    80000860:	6e5060ef          	jal	ra,80007744 <sbi_hart_hang>
    80000864:	05500513          	li	a0,85
    80000868:	038020ef          	jal	ra,800028a0 <misa_extension_imp>
    8000086c:	e60517e3          	bnez	a0,800006da <sbi_init+0x52>
    80000870:	bdb5                	j	800006ec <sbi_init+0x64>
    80000872:	05300513          	li	a0,83
    80000876:	02a020ef          	jal	ra,800028a0 <misa_extension_imp>
    8000087a:	e60509e3          	beqz	a0,800006ec <sbi_init+0x64>
    8000087e:	bdb1                	j	800006da <sbi_init+0x52>
    80000880:	4581                	li	a1,0
    80000882:	8526                	mv	a0,s1
    80000884:	12c050ef          	jal	ra,800059b0 <sbi_hart_init>
    80000888:	d525                	beqz	a0,800007f0 <sbi_init+0x168>
    8000088a:	bfd9                	j	80000860 <sbi_init+0x1d8>
    8000088c:	8526                	mv	a0,s1
    8000088e:	0304ba03          	ld	s4,48(s1)
    80000892:	1fb000ef          	jal	ra,8000128c <sbi_scratch_init>
    80000896:	f569                	bnez	a0,80000860 <sbi_init+0x1d8>
    80000898:	85ca                	mv	a1,s2
    8000089a:	8526                	mv	a0,s1
    8000089c:	0b0040ef          	jal	ra,8000494c <sbi_domain_init>
    800008a0:	f161                	bnez	a0,80000860 <sbi_init+0x1d8>
    800008a2:	0000f597          	auipc	a1,0xf
    800008a6:	76e58593          	addi	a1,a1,1902 # 80010010 <__func__.1950+0x10>
    800008aa:	4521                	li	a0,8
    800008ac:	26d000ef          	jal	ra,80001318 <sbi_scratch_alloc_offset>
    800008b0:	00012797          	auipc	a5,0x12
    800008b4:	74a7bc23          	sd	a0,1880(a5) # 80013008 <init_count_offset>
    800008b8:	d545                	beqz	a0,80000860 <sbi_init+0x1d8>
    800008ba:	4605                	li	a2,1
    800008bc:	85ca                	mv	a1,s2
    800008be:	8526                	mv	a0,s1
    800008c0:	11e070ef          	jal	ra,800079de <sbi_hsm_init>
    800008c4:	fd51                	bnez	a0,80000860 <sbi_init+0x1d8>
    800008c6:	000a0963          	beqz	s4,800008d8 <sbi_init+0x250>
    800008ca:	058a3783          	ld	a5,88(s4)
    800008ce:	639c                	ld	a5,0(a5)
    800008d0:	c781                	beqz	a5,800008d8 <sbi_init+0x250>
    800008d2:	4505                	li	a0,1
    800008d4:	9782                	jalr	a5
    800008d6:	f549                	bnez	a0,80000860 <sbi_init+0x1d8>
    800008d8:	4585                	li	a1,1
    800008da:	8526                	mv	a0,s1
    800008dc:	0d4050ef          	jal	ra,800059b0 <sbi_hart_init>
    800008e0:	f141                	bnez	a0,80000860 <sbi_init+0x1d8>
    800008e2:	8526                	mv	a0,s1
    800008e4:	616030ef          	jal	ra,80003efa <sbi_console_init>
    800008e8:	fd25                	bnez	a0,80000860 <sbi_init+0x1d8>
    800008ea:	68bc                	ld	a5,80(s1)
    800008ec:	8b85                	andi	a5,a5,1
    800008ee:	e38d                	bnez	a5,80000910 <sbi_init+0x288>
    800008f0:	0000f597          	auipc	a1,0xf
    800008f4:	73058593          	addi	a1,a1,1840 # 80010020 <__func__.1950+0x20>
    800008f8:	0000f517          	auipc	a0,0xf
    800008fc:	74050513          	addi	a0,a0,1856 # 80010038 <__func__.1950+0x38>
    80000900:	55a030ef          	jal	ra,80003e5a <sbi_printf>
    80000904:	0000f517          	auipc	a0,0xf
    80000908:	74450513          	addi	a0,a0,1860 # 80010048 <__func__.1950+0x48>
    8000090c:	54e030ef          	jal	ra,80003e5a <sbi_printf>
    80000910:	000a0b63          	beqz	s4,80000926 <sbi_init+0x29e>
    80000914:	058a3783          	ld	a5,88(s4)
    80000918:	6fbc                	ld	a5,88(a5)
    8000091a:	c791                	beqz	a5,80000926 <sbi_init+0x29e>
    8000091c:	4505                	li	a0,1
    8000091e:	9782                	jalr	a5
    80000920:	862a                	mv	a2,a0
    80000922:	f20515e3          	bnez	a0,8000084c <sbi_init+0x1c4>
    80000926:	4585                	li	a1,1
    80000928:	8526                	mv	a0,s1
    8000092a:	74c000ef          	jal	ra,80001076 <sbi_ipi_init>
    8000092e:	862a                	mv	a2,a0
    80000930:	cd15                	beqz	a0,8000096c <sbi_init+0x2e4>
    80000932:	0000f597          	auipc	a1,0xf
    80000936:	6ce58593          	addi	a1,a1,1742 # 80010000 <__func__.1950>
    8000093a:	00010517          	auipc	a0,0x10
    8000093e:	86650513          	addi	a0,a0,-1946 # 800101a0 <__func__.1950+0x1a0>
    80000942:	518030ef          	jal	ra,80003e5a <sbi_printf>
    80000946:	5ff060ef          	jal	ra,80007744 <sbi_hart_hang>
    8000094a:	8526                	mv	a0,s1
    8000094c:	2f6070ef          	jal	ra,80007c42 <sbi_hsm_hart_resume_start>
    80000950:	8526                	mv	a0,s1
    80000952:	73d040ef          	jal	ra,8000588e <sbi_hart_reinit>
    80000956:	f00515e3          	bnez	a0,80000860 <sbi_init+0x1d8>
    8000095a:	8526                	mv	a0,s1
    8000095c:	52f040ef          	jal	ra,8000568a <sbi_hart_pmp_configure>
    80000960:	f00510e3          	bnez	a0,80000860 <sbi_init+0x1d8>
    80000964:	8526                	mv	a0,s1
    80000966:	322070ef          	jal	ra,80007c88 <sbi_hsm_hart_resume_finish>
    8000096a:	bdc1                	j	8000083a <sbi_init+0x1b2>
    8000096c:	4585                	li	a1,1
    8000096e:	8526                	mv	a0,s1
    80000970:	428010ef          	jal	ra,80001d98 <sbi_tlb_init>
    80000974:	862a                	mv	a2,a0
    80000976:	cd09                	beqz	a0,80000990 <sbi_init+0x308>
    80000978:	0000f597          	auipc	a1,0xf
    8000097c:	68858593          	addi	a1,a1,1672 # 80010000 <__func__.1950>
    80000980:	00010517          	auipc	a0,0x10
    80000984:	84050513          	addi	a0,a0,-1984 # 800101c0 <__func__.1950+0x1c0>
    80000988:	4d2030ef          	jal	ra,80003e5a <sbi_printf>
    8000098c:	5b9060ef          	jal	ra,80007744 <sbi_hart_hang>
    80000990:	4585                	li	a1,1
    80000992:	8526                	mv	a0,s1
    80000994:	623000ef          	jal	ra,800017b6 <sbi_timer_init>
    80000998:	862a                	mv	a2,a0
    8000099a:	cd09                	beqz	a0,800009b4 <sbi_init+0x32c>
    8000099c:	0000f597          	auipc	a1,0xf
    800009a0:	66458593          	addi	a1,a1,1636 # 80010000 <__func__.1950>
    800009a4:	00010517          	auipc	a0,0x10
    800009a8:	83c50513          	addi	a0,a0,-1988 # 800101e0 <__func__.1950+0x1e0>
    800009ac:	4ae030ef          	jal	ra,80003e5a <sbi_printf>
    800009b0:	595060ef          	jal	ra,80007744 <sbi_hart_hang>
    800009b4:	2b2040ef          	jal	ra,80004c66 <sbi_ecall_init>
    800009b8:	862a                	mv	a2,a0
    800009ba:	cd09                	beqz	a0,800009d4 <sbi_init+0x34c>
    800009bc:	0000f597          	auipc	a1,0xf
    800009c0:	64458593          	addi	a1,a1,1604 # 80010000 <__func__.1950>
    800009c4:	00010517          	auipc	a0,0x10
    800009c8:	84450513          	addi	a0,a0,-1980 # 80010208 <__func__.1950+0x208>
    800009cc:	48e030ef          	jal	ra,80003e5a <sbi_printf>
    800009d0:	575060ef          	jal	ra,80007744 <sbi_hart_hang>
    800009d4:	68bc                	ld	a5,80(s1)
    800009d6:	8b85                	andi	a5,a5,1
    800009d8:	ebc9                	bnez	a5,80000a6a <sbi_init+0x3e2>
    800009da:	0304ba83          	ld	s5,48(s1)
    800009de:	2a0a8963          	beqz	s5,80000c90 <sbi_init+0x608>
    800009e2:	008a8593          	addi	a1,s5,8
    800009e6:	00010517          	auipc	a0,0x10
    800009ea:	84a50513          	addi	a0,a0,-1974 # 80010230 <__func__.1950+0x230>
    800009ee:	46c030ef          	jal	ra,80003e5a <sbi_printf>
    800009f2:	08000613          	li	a2,128
    800009f6:	8556                	mv	a0,s5
    800009f8:	f3040593          	addi	a1,s0,-208
    800009fc:	77e000ef          	jal	ra,8000117a <sbi_platform_get_features_str>
    80000a00:	f3040593          	addi	a1,s0,-208
    80000a04:	00010517          	auipc	a0,0x10
    80000a08:	84c50513          	addi	a0,a0,-1972 # 80010250 <__func__.1950+0x250>
    80000a0c:	44e030ef          	jal	ra,80003e5a <sbi_printf>
    80000a10:	050aa583          	lw	a1,80(s5)
    80000a14:	00010517          	auipc	a0,0x10
    80000a18:	85c50513          	addi	a0,a0,-1956 # 80010270 <__func__.1950+0x270>
    80000a1c:	43e030ef          	jal	ra,80003e5a <sbi_printf>
    80000a20:	608c                	ld	a1,0(s1)
    80000a22:	00010517          	auipc	a0,0x10
    80000a26:	86e50513          	addi	a0,a0,-1938 # 80010290 <__func__.1950+0x290>
    80000a2a:	430030ef          	jal	ra,80003e5a <sbi_printf>
    80000a2e:	648c                	ld	a1,8(s1)
    80000a30:	00010517          	auipc	a0,0x10
    80000a34:	88850513          	addi	a0,a0,-1912 # 800102b8 <__func__.1950+0x2b8>
    80000a38:	81a9                	srli	a1,a1,0xa
    80000a3a:	2581                	sext.w	a1,a1
    80000a3c:	41e030ef          	jal	ra,80003e5a <sbi_printf>
    80000a40:	026040ef          	jal	ra,80004a66 <sbi_ecall_version_major>
    80000a44:	8aaa                	mv	s5,a0
    80000a46:	02e040ef          	jal	ra,80004a74 <sbi_ecall_version_minor>
    80000a4a:	0005061b          	sext.w	a2,a0
    80000a4e:	000a859b          	sext.w	a1,s5
    80000a52:	00010517          	auipc	a0,0x10
    80000a56:	88e50513          	addi	a0,a0,-1906 # 800102e0 <__func__.1950+0x2e0>
    80000a5a:	400030ef          	jal	ra,80003e5a <sbi_printf>
    80000a5e:	0000f517          	auipc	a0,0xf
    80000a62:	70a50513          	addi	a0,a0,1802 # 80010168 <__func__.1950+0x168>
    80000a66:	3f4030ef          	jal	ra,80003e5a <sbi_printf>
    80000a6a:	85ca                	mv	a1,s2
    80000a6c:	8526                	mv	a0,s1
    80000a6e:	5c9030ef          	jal	ra,80004836 <sbi_domain_finalize>
    80000a72:	862a                	mv	a2,a0
    80000a74:	20051263          	bnez	a0,80000c78 <sbi_init+0x5f0>
    80000a78:	68bc                	ld	a5,80(s1)
    80000a7a:	8b85                	andi	a5,a5,1
    80000a7c:	e799                	bnez	a5,80000a8a <sbi_init+0x402>
    80000a7e:	00010517          	auipc	a0,0x10
    80000a82:	8b250513          	addi	a0,a0,-1870 # 80010330 <__func__.1950+0x330>
    80000a86:	0eb030ef          	jal	ra,80004370 <sbi_domain_dump_all>
    80000a8a:	8526                	mv	a0,s1
    80000a8c:	3ff040ef          	jal	ra,8000568a <sbi_hart_pmp_configure>
    80000a90:	862a                	mv	a2,a0
    80000a92:	8aaa                	mv	s5,a0
    80000a94:	1a051a63          	bnez	a0,80000c48 <sbi_init+0x5c0>
    80000a98:	000a0b63          	beqz	s4,80000aae <sbi_init+0x426>
    80000a9c:	058a3783          	ld	a5,88(s4)
    80000aa0:	679c                	ld	a5,8(a5)
    80000aa2:	c791                	beqz	a5,80000aae <sbi_init+0x426>
    80000aa4:	4505                	li	a0,1
    80000aa6:	9782                	jalr	a5
    80000aa8:	862a                	mv	a2,a0
    80000aaa:	1a051b63          	bnez	a0,80000c60 <sbi_init+0x5d8>
    80000aae:	f14027f3          	csrr	a5,mhartid
    80000ab2:	68b8                	ld	a4,80(s1)
    80000ab4:	8b05                	andi	a4,a4,1
    80000ab6:	0e071e63          	bnez	a4,80000bb2 <sbi_init+0x52a>
    80000aba:	1782                	slli	a5,a5,0x20
    80000abc:	00013717          	auipc	a4,0x13
    80000ac0:	f9c70713          	addi	a4,a4,-100 # 80013a58 <hartid_to_domain_table>
    80000ac4:	83f5                	srli	a5,a5,0x1d
    80000ac6:	97ba                	add	a5,a5,a4
    80000ac8:	0007bb03          	ld	s6,0(a5)
    80000acc:	635010ef          	jal	ra,80002900 <misa_xlen>
    80000ad0:	8a2a                	mv	s4,a0
    80000ad2:	14a05663          	blez	a0,80000c1e <sbi_init+0x596>
    80000ad6:	85ca                	mv	a1,s2
    80000ad8:	00010517          	auipc	a0,0x10
    80000adc:	8d850513          	addi	a0,a0,-1832 # 800103b0 <__func__.1950+0x3b0>
    80000ae0:	37a030ef          	jal	ra,80003e5a <sbi_printf>
    80000ae4:	018b0593          	addi	a1,s6,24
    80000ae8:	00010517          	auipc	a0,0x10
    80000aec:	8e850513          	addi	a0,a0,-1816 # 800103d0 <__func__.1950+0x3d0>
    80000af0:	36a030ef          	jal	ra,80003e5a <sbi_printf>
    80000af4:	08000613          	li	a2,128
    80000af8:	8552                	mv	a0,s4
    80000afa:	f3040593          	addi	a1,s0,-208
    80000afe:	647010ef          	jal	ra,80002944 <misa_string>
    80000b02:	f3040593          	addi	a1,s0,-208
    80000b06:	00010517          	auipc	a0,0x10
    80000b0a:	8ea50513          	addi	a0,a0,-1814 # 800103f0 <__func__.1950+0x3f0>
    80000b0e:	34c030ef          	jal	ra,80003e5a <sbi_printf>
    80000b12:	08000613          	li	a2,128
    80000b16:	8526                	mv	a0,s1
    80000b18:	f3040593          	addi	a1,s0,-208
    80000b1c:	493040ef          	jal	ra,800057ae <sbi_hart_get_features_str>
    80000b20:	f3040593          	addi	a1,s0,-208
    80000b24:	00010517          	auipc	a0,0x10
    80000b28:	8ec50513          	addi	a0,a0,-1812 # 80010410 <__func__.1950+0x410>
    80000b2c:	32e030ef          	jal	ra,80003e5a <sbi_printf>
    80000b30:	8526                	mv	a0,s1
    80000b32:	30b040ef          	jal	ra,8000563c <sbi_hart_pmp_count>
    80000b36:	0005059b          	sext.w	a1,a0
    80000b3a:	00010517          	auipc	a0,0x10
    80000b3e:	8f650513          	addi	a0,a0,-1802 # 80010430 <__func__.1950+0x430>
    80000b42:	318030ef          	jal	ra,80003e5a <sbi_printf>
    80000b46:	8526                	mv	a0,s1
    80000b48:	30f040ef          	jal	ra,80005656 <sbi_hart_pmp_granularity>
    80000b4c:	85aa                	mv	a1,a0
    80000b4e:	00010517          	auipc	a0,0x10
    80000b52:	90250513          	addi	a0,a0,-1790 # 80010450 <__func__.1950+0x450>
    80000b56:	304030ef          	jal	ra,80003e5a <sbi_printf>
    80000b5a:	8526                	mv	a0,s1
    80000b5c:	315040ef          	jal	ra,80005670 <sbi_hart_pmp_addrbits>
    80000b60:	0005059b          	sext.w	a1,a0
    80000b64:	00010517          	auipc	a0,0x10
    80000b68:	91450513          	addi	a0,a0,-1772 # 80010478 <__func__.1950+0x478>
    80000b6c:	2ee030ef          	jal	ra,80003e5a <sbi_printf>
    80000b70:	8526                	mv	a0,s1
    80000b72:	2b1040ef          	jal	ra,80005622 <sbi_hart_mhpm_count>
    80000b76:	0005059b          	sext.w	a1,a0
    80000b7a:	00010517          	auipc	a0,0x10
    80000b7e:	91e50513          	addi	a0,a0,-1762 # 80010498 <__func__.1950+0x498>
    80000b82:	2d8030ef          	jal	ra,80003e5a <sbi_printf>
    80000b86:	8526                	mv	a0,s1
    80000b88:	29b040ef          	jal	ra,80005622 <sbi_hart_mhpm_count>
    80000b8c:	0005059b          	sext.w	a1,a0
    80000b90:	00010517          	auipc	a0,0x10
    80000b94:	90850513          	addi	a0,a0,-1784 # 80010498 <__func__.1950+0x498>
    80000b98:	2c2030ef          	jal	ra,80003e5a <sbi_printf>
    80000b9c:	00010617          	auipc	a2,0x10
    80000ba0:	91c60613          	addi	a2,a2,-1764 # 800104b8 <__func__.1950+0x4b8>
    80000ba4:	00010597          	auipc	a1,0x10
    80000ba8:	92458593          	addi	a1,a1,-1756 # 800104c8 <__func__.1950+0x4c8>
    80000bac:	8526                	mv	a0,s1
    80000bae:	227040ef          	jal	ra,800055d4 <sbi_hart_delegation_dump>
    80000bb2:	0304bb03          	ld	s6,48(s1)
    80000bb6:	0310000f          	fence	rw,w
    80000bba:	4785                	li	a5,1
    80000bbc:	00012517          	auipc	a0,0x12
    80000bc0:	45c50513          	addi	a0,a0,1116 # 80013018 <coldboot_lock>
    80000bc4:	00012717          	auipc	a4,0x12
    80000bc8:	44f73623          	sd	a5,1100(a4) # 80013010 <coldboot_done>
    80000bcc:	00011a17          	auipc	s4,0x11
    80000bd0:	444a0a13          	addi	s4,s4,1092 # 80012010 <last_hartid_having_scratch>
    80000bd4:	640020ef          	jal	ra,80003214 <spin_lock>
    80000bd8:	07f00c13          	li	s8,127
    80000bdc:	00012b97          	auipc	s7,0x12
    80000be0:	524b8b93          	addi	s7,s7,1316 # 80013100 <coldboot_wait_hmask>
    80000be4:	a031                	j	80000bf0 <sbi_init+0x568>
    80000be6:	000a2783          	lw	a5,0(s4)
    80000bea:	2a85                	addiw	s5,s5,1
    80000bec:	0557e263          	bltu	a5,s5,80000c30 <sbi_init+0x5a8>
    80000bf0:	000a851b          	sext.w	a0,s5
    80000bf4:	fea909e3          	beq	s2,a0,80000be6 <sbi_init+0x55e>
    80000bf8:	feac67e3          	bltu	s8,a0,80000be6 <sbi_init+0x55e>
    80000bfc:	406ad79b          	sraiw	a5,s5,0x6
    80000c00:	078e                	slli	a5,a5,0x3
    80000c02:	97de                	add	a5,a5,s7
    80000c04:	639c                	ld	a5,0(a5)
    80000c06:	0157d7b3          	srl	a5,a5,s5
    80000c0a:	8b85                	andi	a5,a5,1
    80000c0c:	dfe9                	beqz	a5,80000be6 <sbi_init+0x55e>
    80000c0e:	fc0b0ce3          	beqz	s6,80000be6 <sbi_init+0x55e>
    80000c12:	058b3783          	ld	a5,88(s6)
    80000c16:	77bc                	ld	a5,104(a5)
    80000c18:	d7f9                	beqz	a5,80000be6 <sbi_init+0x55e>
    80000c1a:	9782                	jalr	a5
    80000c1c:	b7e9                	j	80000be6 <sbi_init+0x55e>
    80000c1e:	85aa                	mv	a1,a0
    80000c20:	0000f517          	auipc	a0,0xf
    80000c24:	77050513          	addi	a0,a0,1904 # 80010390 <__func__.1950+0x390>
    80000c28:	232030ef          	jal	ra,80003e5a <sbi_printf>
    80000c2c:	319060ef          	jal	ra,80007744 <sbi_hart_hang>
    80000c30:	00012517          	auipc	a0,0x12
    80000c34:	3e850513          	addi	a0,a0,1000 # 80013018 <coldboot_lock>
    80000c38:	5fa020ef          	jal	ra,80003232 <spin_unlock>
    80000c3c:	00012797          	auipc	a5,0x12
    80000c40:	3cc78793          	addi	a5,a5,972 # 80013008 <init_count_offset>
    80000c44:	639c                	ld	a5,0(a5)
    80000c46:	b6d5                	j	8000082a <sbi_init+0x1a2>
    80000c48:	0000f597          	auipc	a1,0xf
    80000c4c:	3b858593          	addi	a1,a1,952 # 80010000 <__func__.1950>
    80000c50:	0000f517          	auipc	a0,0xf
    80000c54:	6e850513          	addi	a0,a0,1768 # 80010338 <__func__.1950+0x338>
    80000c58:	202030ef          	jal	ra,80003e5a <sbi_printf>
    80000c5c:	2e9060ef          	jal	ra,80007744 <sbi_hart_hang>
    80000c60:	0000f597          	auipc	a1,0xf
    80000c64:	3a058593          	addi	a1,a1,928 # 80010000 <__func__.1950>
    80000c68:	0000f517          	auipc	a0,0xf
    80000c6c:	6f850513          	addi	a0,a0,1784 # 80010360 <__func__.1950+0x360>
    80000c70:	1ea030ef          	jal	ra,80003e5a <sbi_printf>
    80000c74:	2d1060ef          	jal	ra,80007744 <sbi_hart_hang>
    80000c78:	0000f597          	auipc	a1,0xf
    80000c7c:	38858593          	addi	a1,a1,904 # 80010000 <__func__.1950>
    80000c80:	0000f517          	auipc	a0,0xf
    80000c84:	68850513          	addi	a0,a0,1672 # 80010308 <__func__.1950+0x308>
    80000c88:	1d2030ef          	jal	ra,80003e5a <sbi_printf>
    80000c8c:	2b9060ef          	jal	ra,80007744 <sbi_hart_hang>
    80000c90:	00010597          	auipc	a1,0x10
    80000c94:	84858593          	addi	a1,a1,-1976 # 800104d8 <__func__.1950+0x4d8>
    80000c98:	0000f517          	auipc	a0,0xf
    80000c9c:	59850513          	addi	a0,a0,1432 # 80010230 <__func__.1950+0x230>
    80000ca0:	1ba030ef          	jal	ra,80003e5a <sbi_printf>
    80000ca4:	08000613          	li	a2,128
    80000ca8:	4501                	li	a0,0
    80000caa:	f3040593          	addi	a1,s0,-208
    80000cae:	4cc000ef          	jal	ra,8000117a <sbi_platform_get_features_str>
    80000cb2:	f3040593          	addi	a1,s0,-208
    80000cb6:	0000f517          	auipc	a0,0xf
    80000cba:	59a50513          	addi	a0,a0,1434 # 80010250 <__func__.1950+0x250>
    80000cbe:	19c030ef          	jal	ra,80003e5a <sbi_printf>
    80000cc2:	4581                	li	a1,0
    80000cc4:	bb81                	j	80000a14 <sbi_init+0x38c>

0000000080000cc6 <sbi_init_count>:
    80000cc6:	1141                	addi	sp,sp,-16
    80000cc8:	e422                	sd	s0,8(sp)
    80000cca:	0800                	addi	s0,sp,16
    80000ccc:	00012797          	auipc	a5,0x12
    80000cd0:	33c78793          	addi	a5,a5,828 # 80013008 <init_count_offset>
    80000cd4:	639c                	ld	a5,0(a5)
    80000cd6:	cf81                	beqz	a5,80000cee <sbi_init_count+0x28>
    80000cd8:	1502                	slli	a0,a0,0x20
    80000cda:	00012717          	auipc	a4,0x12
    80000cde:	63670713          	addi	a4,a4,1590 # 80013310 <hartid_to_scratch_table>
    80000ce2:	8175                	srli	a0,a0,0x1d
    80000ce4:	953a                	add	a0,a0,a4
    80000ce6:	6118                	ld	a4,0(a0)
    80000ce8:	c719                	beqz	a4,80000cf6 <sbi_init_count+0x30>
    80000cea:	97ba                	add	a5,a5,a4
    80000cec:	639c                	ld	a5,0(a5)
    80000cee:	6422                	ld	s0,8(sp)
    80000cf0:	853e                	mv	a0,a5
    80000cf2:	0141                	addi	sp,sp,16
    80000cf4:	8082                	ret
    80000cf6:	6422                	ld	s0,8(sp)
    80000cf8:	4781                	li	a5,0
    80000cfa:	853e                	mv	a0,a5
    80000cfc:	0141                	addi	sp,sp,16
    80000cfe:	8082                	ret

0000000080000d00 <sbi_exit>:
    80000d00:	7179                	addi	sp,sp,-48
    80000d02:	f022                	sd	s0,32(sp)
    80000d04:	f406                	sd	ra,40(sp)
    80000d06:	ec26                	sd	s1,24(sp)
    80000d08:	e84a                	sd	s2,16(sp)
    80000d0a:	e44e                	sd	s3,8(sp)
    80000d0c:	1800                	addi	s0,sp,48
    80000d0e:	f14025f3          	csrr	a1,mhartid
    80000d12:	7904                	ld	s1,48(a0)
    80000d14:	c0a1                	beqz	s1,80000d54 <sbi_exit+0x54>
    80000d16:	892a                	mv	s2,a0
    80000d18:	0504a983          	lw	s3,80(s1)
    80000d1c:	2581                	sext.w	a1,a1
    80000d1e:	8526                	mv	a0,s1
    80000d20:	530000ef          	jal	ra,80001250 <sbi_platform_hart_index>
    80000d24:	2501                	sext.w	a0,a0
    80000d26:	03357763          	bleu	s3,a0,80000d54 <sbi_exit+0x54>
    80000d2a:	6cbc                	ld	a5,88(s1)
    80000d2c:	6b9c                	ld	a5,16(a5)
    80000d2e:	c391                	beqz	a5,80000d32 <sbi_exit+0x32>
    80000d30:	9782                	jalr	a5
    80000d32:	854a                	mv	a0,s2
    80000d34:	335000ef          	jal	ra,80001868 <sbi_timer_exit>
    80000d38:	854a                	mv	a0,s2
    80000d3a:	416000ef          	jal	ra,80001150 <sbi_ipi_exit>
    80000d3e:	6cbc                	ld	a5,88(s1)
    80000d40:	73b8                	ld	a4,96(a5)
    80000d42:	c319                	beqz	a4,80000d48 <sbi_exit+0x48>
    80000d44:	9702                	jalr	a4
    80000d46:	6cbc                	ld	a5,88(s1)
    80000d48:	6f9c                	ld	a5,24(a5)
    80000d4a:	c391                	beqz	a5,80000d4e <sbi_exit+0x4e>
    80000d4c:	9782                	jalr	a5
    80000d4e:	854a                	mv	a0,s2
    80000d50:	533060ef          	jal	ra,80007a82 <sbi_hsm_exit>
    80000d54:	1f1060ef          	jal	ra,80007744 <sbi_hart_hang>

0000000080000d58 <sbi_ipi_process_smode>:
    80000d58:	1141                	addi	sp,sp,-16
    80000d5a:	e422                	sd	s0,8(sp)
    80000d5c:	0800                	addi	s0,sp,16
    80000d5e:	34416073          	csrsi	mip,2
    80000d62:	6422                	ld	s0,8(sp)
    80000d64:	0141                	addi	sp,sp,16
    80000d66:	8082                	ret

0000000080000d68 <sbi_ipi_send>:
    80000d68:	715d                	addi	sp,sp,-80
    80000d6a:	e0a2                	sd	s0,64(sp)
    80000d6c:	e486                	sd	ra,72(sp)
    80000d6e:	fc26                	sd	s1,56(sp)
    80000d70:	f84a                	sd	s2,48(sp)
    80000d72:	f44e                	sd	s3,40(sp)
    80000d74:	f052                	sd	s4,32(sp)
    80000d76:	ec56                	sd	s5,24(sp)
    80000d78:	e85a                	sd	s6,16(sp)
    80000d7a:	e45e                	sd	s7,8(sp)
    80000d7c:	0880                	addi	s0,sp,80
    80000d7e:	03f00793          	li	a5,63
    80000d82:	03053903          	ld	s2,48(a0)
    80000d86:	08c7ee63          	bltu	a5,a2,80000e22 <sbi_ipi_send+0xba>
    80000d8a:	02061793          	slli	a5,a2,0x20
    80000d8e:	01d7d713          	srli	a4,a5,0x1d
    80000d92:	00012797          	auipc	a5,0x12
    80000d96:	37e78793          	addi	a5,a5,894 # 80013110 <ipi_ops_array>
    80000d9a:	97ba                	add	a5,a5,a4
    80000d9c:	0007b983          	ld	s3,0(a5)
    80000da0:	08098163          	beqz	s3,80000e22 <sbi_ipi_send+0xba>
    80000da4:	02059793          	slli	a5,a1,0x20
    80000da8:	01d7d713          	srli	a4,a5,0x1d
    80000dac:	00012797          	auipc	a5,0x12
    80000db0:	56478793          	addi	a5,a5,1380 # 80013310 <hartid_to_scratch_table>
    80000db4:	97ba                	add	a5,a5,a4
    80000db6:	639c                	ld	a5,0(a5)
    80000db8:	c7ad                	beqz	a5,80000e22 <sbi_ipi_send+0xba>
    80000dba:	00012717          	auipc	a4,0x12
    80000dbe:	26670713          	addi	a4,a4,614 # 80013020 <ipi_data_off>
    80000dc2:	6318                	ld	a4,0(a4)
    80000dc4:	0209b803          	ld	a6,32(s3)
    80000dc8:	8b2a                	mv	s6,a0
    80000dca:	8bae                	mv	s7,a1
    80000dcc:	84b2                	mv	s1,a2
    80000dce:	00e78a33          	add	s4,a5,a4
    80000dd2:	00080863          	beqz	a6,80000de2 <sbi_ipi_send+0x7a>
    80000dd6:	862e                	mv	a2,a1
    80000dd8:	85be                	mv	a1,a5
    80000dda:	9802                	jalr	a6
    80000ddc:	8aaa                	mv	s5,a0
    80000dde:	02054663          	bltz	a0,80000e0a <sbi_ipi_send+0xa2>
    80000de2:	85d2                	mv	a1,s4
    80000de4:	8526                	mv	a0,s1
    80000de6:	338020ef          	jal	ra,8000311e <atomic_raw_set_bit>
    80000dea:	0110000f          	fence	w,w
    80000dee:	00090863          	beqz	s2,80000dfe <sbi_ipi_send+0x96>
    80000df2:	05893783          	ld	a5,88(s2)
    80000df6:	77bc                	ld	a5,104(a5)
    80000df8:	c399                	beqz	a5,80000dfe <sbi_ipi_send+0x96>
    80000dfa:	855e                	mv	a0,s7
    80000dfc:	9782                	jalr	a5
    80000dfe:	0289b783          	ld	a5,40(s3)
    80000e02:	4a81                	li	s5,0
    80000e04:	c399                	beqz	a5,80000e0a <sbi_ipi_send+0xa2>
    80000e06:	855a                	mv	a0,s6
    80000e08:	9782                	jalr	a5
    80000e0a:	60a6                	ld	ra,72(sp)
    80000e0c:	6406                	ld	s0,64(sp)
    80000e0e:	8556                	mv	a0,s5
    80000e10:	74e2                	ld	s1,56(sp)
    80000e12:	7942                	ld	s2,48(sp)
    80000e14:	79a2                	ld	s3,40(sp)
    80000e16:	7a02                	ld	s4,32(sp)
    80000e18:	6ae2                	ld	s5,24(sp)
    80000e1a:	6b42                	ld	s6,16(sp)
    80000e1c:	6ba2                	ld	s7,8(sp)
    80000e1e:	6161                	addi	sp,sp,80
    80000e20:	8082                	ret
    80000e22:	5af5                	li	s5,-3
    80000e24:	b7dd                	j	80000e0a <sbi_ipi_send+0xa2>

0000000080000e26 <sbi_ipi_process_halt>:
    80000e26:	1141                	addi	sp,sp,-16
    80000e28:	e022                	sd	s0,0(sp)
    80000e2a:	e406                	sd	ra,8(sp)
    80000e2c:	0800                	addi	s0,sp,16
    80000e2e:	4585                	li	a1,1
    80000e30:	59f060ef          	jal	ra,80007bce <sbi_hsm_hart_stop>
    80000e34:	60a2                	ld	ra,8(sp)
    80000e36:	6402                	ld	s0,0(sp)
    80000e38:	0141                	addi	sp,sp,16
    80000e3a:	8082                	ret

0000000080000e3c <sbi_ipi_event_create.part.0>:
    80000e3c:	1141                	addi	sp,sp,-16
    80000e3e:	e422                	sd	s0,8(sp)
    80000e40:	00012597          	auipc	a1,0x12
    80000e44:	2d058593          	addi	a1,a1,720 # 80013110 <ipi_ops_array>
    80000e48:	0800                	addi	s0,sp,16
    80000e4a:	87ae                	mv	a5,a1
    80000e4c:	4701                	li	a4,0
    80000e4e:	04000613          	li	a2,64
    80000e52:	a021                	j	80000e5a <sbi_ipi_event_create.part.0+0x1e>
    80000e54:	2705                	addiw	a4,a4,1
    80000e56:	00c70d63          	beq	a4,a2,80000e70 <sbi_ipi_event_create.part.0+0x34>
    80000e5a:	6394                	ld	a3,0(a5)
    80000e5c:	07a1                	addi	a5,a5,8
    80000e5e:	fafd                	bnez	a3,80000e54 <sbi_ipi_event_create.part.0+0x18>
    80000e60:	00371793          	slli	a5,a4,0x3
    80000e64:	95be                	add	a1,a1,a5
    80000e66:	e188                	sd	a0,0(a1)
    80000e68:	6422                	ld	s0,8(sp)
    80000e6a:	853a                	mv	a0,a4
    80000e6c:	0141                	addi	sp,sp,16
    80000e6e:	8082                	ret
    80000e70:	6422                	ld	s0,8(sp)
    80000e72:	c1300713          	li	a4,-1005
    80000e76:	853a                	mv	a0,a4
    80000e78:	0141                	addi	sp,sp,16
    80000e7a:	8082                	ret

0000000080000e7c <sbi_ipi_send_many>:
    80000e7c:	715d                	addi	sp,sp,-80
    80000e7e:	e0a2                	sd	s0,64(sp)
    80000e80:	f44e                	sd	s3,40(sp)
    80000e82:	f052                	sd	s4,32(sp)
    80000e84:	e486                	sd	ra,72(sp)
    80000e86:	fc26                	sd	s1,56(sp)
    80000e88:	f84a                	sd	s2,48(sp)
    80000e8a:	ec56                	sd	s5,24(sp)
    80000e8c:	e85a                	sd	s6,16(sp)
    80000e8e:	0880                	addi	s0,sp,80
    80000e90:	89b2                	mv	s3,a2
    80000e92:	8a36                	mv	s4,a3
    80000e94:	f14027f3          	csrr	a5,mhartid
    80000e98:	1782                	slli	a5,a5,0x20
    80000e9a:	00013717          	auipc	a4,0x13
    80000e9e:	bbe70713          	addi	a4,a4,-1090 # 80013a58 <hartid_to_domain_table>
    80000ea2:	83f5                	srli	a5,a5,0x1d
    80000ea4:	97ba                	add	a5,a5,a4
    80000ea6:	0007bb03          	ld	s6,0(a5)
    80000eaa:	34002af3          	csrr	s5,mscratch
    80000eae:	57fd                	li	a5,-1
    80000eb0:	4901                	li	s2,0
    80000eb2:	06f59863          	bne	a1,a5,80000f22 <sbi_ipi_send_many+0xa6>
    80000eb6:	fb840613          	addi	a2,s0,-72
    80000eba:	85ca                	mv	a1,s2
    80000ebc:	855a                	mv	a0,s6
    80000ebe:	225060ef          	jal	ra,800078e2 <sbi_hsm_hart_interruptible_mask>
    80000ec2:	e529                	bnez	a0,80000f0c <sbi_ipi_send_many+0x90>
    80000ec4:	fb843783          	ld	a5,-72(s0)
    80000ec8:	84ca                	mv	s1,s2
    80000eca:	e799                	bnez	a5,80000ed8 <sbi_ipi_send_many+0x5c>
    80000ecc:	a03d                	j	80000efa <sbi_ipi_send_many+0x7e>
    80000ece:	8385                	srli	a5,a5,0x1
    80000ed0:	faf43c23          	sd	a5,-72(s0)
    80000ed4:	0485                	addi	s1,s1,1
    80000ed6:	c395                	beqz	a5,80000efa <sbi_ipi_send_many+0x7e>
    80000ed8:	0017f713          	andi	a4,a5,1
    80000edc:	db6d                	beqz	a4,80000ece <sbi_ipi_send_many+0x52>
    80000ede:	0004859b          	sext.w	a1,s1
    80000ee2:	86d2                	mv	a3,s4
    80000ee4:	864e                	mv	a2,s3
    80000ee6:	8556                	mv	a0,s5
    80000ee8:	e81ff0ef          	jal	ra,80000d68 <sbi_ipi_send>
    80000eec:	fb843783          	ld	a5,-72(s0)
    80000ef0:	0485                	addi	s1,s1,1
    80000ef2:	8385                	srli	a5,a5,0x1
    80000ef4:	faf43c23          	sd	a5,-72(s0)
    80000ef8:	f3e5                	bnez	a5,80000ed8 <sbi_ipi_send_many+0x5c>
    80000efa:	04090913          	addi	s2,s2,64
    80000efe:	fb840613          	addi	a2,s0,-72
    80000f02:	85ca                	mv	a1,s2
    80000f04:	855a                	mv	a0,s6
    80000f06:	1dd060ef          	jal	ra,800078e2 <sbi_hsm_hart_interruptible_mask>
    80000f0a:	dd4d                	beqz	a0,80000ec4 <sbi_ipi_send_many+0x48>
    80000f0c:	4501                	li	a0,0
    80000f0e:	60a6                	ld	ra,72(sp)
    80000f10:	6406                	ld	s0,64(sp)
    80000f12:	74e2                	ld	s1,56(sp)
    80000f14:	7942                	ld	s2,48(sp)
    80000f16:	79a2                	ld	s3,40(sp)
    80000f18:	7a02                	ld	s4,32(sp)
    80000f1a:	6ae2                	ld	s5,24(sp)
    80000f1c:	6b42                	ld	s6,16(sp)
    80000f1e:	6161                	addi	sp,sp,80
    80000f20:	8082                	ret
    80000f22:	84aa                	mv	s1,a0
    80000f24:	fb840613          	addi	a2,s0,-72
    80000f28:	855a                	mv	a0,s6
    80000f2a:	892e                	mv	s2,a1
    80000f2c:	1b7060ef          	jal	ra,800078e2 <sbi_hsm_hart_interruptible_mask>
    80000f30:	fd79                	bnez	a0,80000f0e <sbi_ipi_send_many+0x92>
    80000f32:	fb843783          	ld	a5,-72(s0)
    80000f36:	00f4f733          	and	a4,s1,a5
    80000f3a:	fae43c23          	sd	a4,-72(s0)
    80000f3e:	87ba                	mv	a5,a4
    80000f40:	eb01                	bnez	a4,80000f50 <sbi_ipi_send_many+0xd4>
    80000f42:	b7e9                	j	80000f0c <sbi_ipi_send_many+0x90>
    80000f44:	8385                	srli	a5,a5,0x1
    80000f46:	faf43c23          	sd	a5,-72(s0)
    80000f4a:	0905                	addi	s2,s2,1
    80000f4c:	873e                	mv	a4,a5
    80000f4e:	dfdd                	beqz	a5,80000f0c <sbi_ipi_send_many+0x90>
    80000f50:	8b05                	andi	a4,a4,1
    80000f52:	db6d                	beqz	a4,80000f44 <sbi_ipi_send_many+0xc8>
    80000f54:	0009059b          	sext.w	a1,s2
    80000f58:	86d2                	mv	a3,s4
    80000f5a:	864e                	mv	a2,s3
    80000f5c:	8556                	mv	a0,s5
    80000f5e:	e0bff0ef          	jal	ra,80000d68 <sbi_ipi_send>
    80000f62:	fb843783          	ld	a5,-72(s0)
    80000f66:	bff9                	j	80000f44 <sbi_ipi_send_many+0xc8>

0000000080000f68 <sbi_ipi_event_create>:
    80000f68:	cd09                	beqz	a0,80000f82 <sbi_ipi_event_create+0x1a>
    80000f6a:	791c                	ld	a5,48(a0)
    80000f6c:	cb99                	beqz	a5,80000f82 <sbi_ipi_event_create+0x1a>
    80000f6e:	1141                	addi	sp,sp,-16
    80000f70:	e022                	sd	s0,0(sp)
    80000f72:	e406                	sd	ra,8(sp)
    80000f74:	0800                	addi	s0,sp,16
    80000f76:	ec7ff0ef          	jal	ra,80000e3c <sbi_ipi_event_create.part.0>
    80000f7a:	60a2                	ld	ra,8(sp)
    80000f7c:	6402                	ld	s0,0(sp)
    80000f7e:	0141                	addi	sp,sp,16
    80000f80:	8082                	ret
    80000f82:	5575                	li	a0,-3
    80000f84:	8082                	ret

0000000080000f86 <sbi_ipi_event_destroy>:
    80000f86:	1141                	addi	sp,sp,-16
    80000f88:	e422                	sd	s0,8(sp)
    80000f8a:	0800                	addi	s0,sp,16
    80000f8c:	03f00793          	li	a5,63
    80000f90:	00a7eb63          	bltu	a5,a0,80000fa6 <sbi_ipi_event_destroy+0x20>
    80000f94:	1502                	slli	a0,a0,0x20
    80000f96:	8175                	srli	a0,a0,0x1d
    80000f98:	00012797          	auipc	a5,0x12
    80000f9c:	17878793          	addi	a5,a5,376 # 80013110 <ipi_ops_array>
    80000fa0:	953e                	add	a0,a0,a5
    80000fa2:	00053023          	sd	zero,0(a0)
    80000fa6:	6422                	ld	s0,8(sp)
    80000fa8:	0141                	addi	sp,sp,16
    80000faa:	8082                	ret

0000000080000fac <sbi_ipi_send_smode>:
    80000fac:	1141                	addi	sp,sp,-16
    80000fae:	e022                	sd	s0,0(sp)
    80000fb0:	e406                	sd	ra,8(sp)
    80000fb2:	0800                	addi	s0,sp,16
    80000fb4:	00011797          	auipc	a5,0x11
    80000fb8:	05078793          	addi	a5,a5,80 # 80012004 <ipi_smode_event>
    80000fbc:	4390                	lw	a2,0(a5)
    80000fbe:	4681                	li	a3,0
    80000fc0:	ebdff0ef          	jal	ra,80000e7c <sbi_ipi_send_many>
    80000fc4:	60a2                	ld	ra,8(sp)
    80000fc6:	6402                	ld	s0,0(sp)
    80000fc8:	0141                	addi	sp,sp,16
    80000fca:	8082                	ret

0000000080000fcc <sbi_ipi_clear_smode>:
    80000fcc:	1141                	addi	sp,sp,-16
    80000fce:	e422                	sd	s0,8(sp)
    80000fd0:	0800                	addi	s0,sp,16
    80000fd2:	34417073          	csrci	mip,2
    80000fd6:	6422                	ld	s0,8(sp)
    80000fd8:	0141                	addi	sp,sp,16
    80000fda:	8082                	ret

0000000080000fdc <sbi_ipi_send_halt>:
    80000fdc:	1141                	addi	sp,sp,-16
    80000fde:	e022                	sd	s0,0(sp)
    80000fe0:	e406                	sd	ra,8(sp)
    80000fe2:	0800                	addi	s0,sp,16
    80000fe4:	00011797          	auipc	a5,0x11
    80000fe8:	01c78793          	addi	a5,a5,28 # 80012000 <ipi_halt_event>
    80000fec:	4390                	lw	a2,0(a5)
    80000fee:	4681                	li	a3,0
    80000ff0:	e8dff0ef          	jal	ra,80000e7c <sbi_ipi_send_many>
    80000ff4:	60a2                	ld	ra,8(sp)
    80000ff6:	6402                	ld	s0,0(sp)
    80000ff8:	0141                	addi	sp,sp,16
    80000ffa:	8082                	ret

0000000080000ffc <sbi_ipi_process>:
    80000ffc:	7179                	addi	sp,sp,-48
    80000ffe:	f022                	sd	s0,32(sp)
    80001000:	f406                	sd	ra,40(sp)
    80001002:	ec26                	sd	s1,24(sp)
    80001004:	e84a                	sd	s2,16(sp)
    80001006:	e44e                	sd	s3,8(sp)
    80001008:	e052                	sd	s4,0(sp)
    8000100a:	1800                	addi	s0,sp,48
    8000100c:	34002a73          	csrr	s4,mscratch
    80001010:	00012797          	auipc	a5,0x12
    80001014:	01078793          	addi	a5,a5,16 # 80013020 <ipi_data_off>
    80001018:	6384                	ld	s1,0(a5)
    8000101a:	030a3783          	ld	a5,48(s4)
    8000101e:	94d2                	add	s1,s1,s4
    80001020:	f1402573          	csrr	a0,mhartid
    80001024:	c791                	beqz	a5,80001030 <sbi_ipi_process+0x34>
    80001026:	6fbc                	ld	a5,88(a5)
    80001028:	7bbc                	ld	a5,112(a5)
    8000102a:	c399                	beqz	a5,80001030 <sbi_ipi_process+0x34>
    8000102c:	2501                	sext.w	a0,a0
    8000102e:	9782                	jalr	a5
    80001030:	8526                	mv	a0,s1
    80001032:	4581                	li	a1,0
    80001034:	0c2020ef          	jal	ra,800030f6 <atomic_raw_xchg_ulong>
    80001038:	84aa                	mv	s1,a0
    8000103a:	c515                	beqz	a0,80001066 <sbi_ipi_process+0x6a>
    8000103c:	4901                	li	s2,0
    8000103e:	00012997          	auipc	s3,0x12
    80001042:	0d298993          	addi	s3,s3,210 # 80013110 <ipi_ops_array>
    80001046:	02091793          	slli	a5,s2,0x20
    8000104a:	83f5                	srli	a5,a5,0x1d
    8000104c:	0014f713          	andi	a4,s1,1
    80001050:	97ce                	add	a5,a5,s3
    80001052:	8085                	srli	s1,s1,0x1
    80001054:	c719                	beqz	a4,80001062 <sbi_ipi_process+0x66>
    80001056:	639c                	ld	a5,0(a5)
    80001058:	8552                	mv	a0,s4
    8000105a:	c781                	beqz	a5,80001062 <sbi_ipi_process+0x66>
    8000105c:	7b9c                	ld	a5,48(a5)
    8000105e:	c391                	beqz	a5,80001062 <sbi_ipi_process+0x66>
    80001060:	9782                	jalr	a5
    80001062:	2905                	addiw	s2,s2,1
    80001064:	f0ed                	bnez	s1,80001046 <sbi_ipi_process+0x4a>
    80001066:	70a2                	ld	ra,40(sp)
    80001068:	7402                	ld	s0,32(sp)
    8000106a:	64e2                	ld	s1,24(sp)
    8000106c:	6942                	ld	s2,16(sp)
    8000106e:	69a2                	ld	s3,8(sp)
    80001070:	6a02                	ld	s4,0(sp)
    80001072:	6145                	addi	sp,sp,48
    80001074:	8082                	ret

0000000080001076 <sbi_ipi_init>:
    80001076:	7179                	addi	sp,sp,-48
    80001078:	f022                	sd	s0,32(sp)
    8000107a:	e84a                	sd	s2,16(sp)
    8000107c:	e44e                	sd	s3,8(sp)
    8000107e:	f406                	sd	ra,40(sp)
    80001080:	ec26                	sd	s1,24(sp)
    80001082:	e052                	sd	s4,0(sp)
    80001084:	1800                	addi	s0,sp,48
    80001086:	89ae                	mv	s3,a1
    80001088:	892a                	mv	s2,a0
    8000108a:	edb1                	bnez	a1,800010e6 <sbi_ipi_init+0x70>
    8000108c:	00012797          	auipc	a5,0x12
    80001090:	f9478793          	addi	a5,a5,-108 # 80013020 <ipi_data_off>
    80001094:	6384                	ld	s1,0(a5)
    80001096:	c8c5                	beqz	s1,80001146 <sbi_ipi_init+0xd0>
    80001098:	00011797          	auipc	a5,0x11
    8000109c:	f6c78793          	addi	a5,a5,-148 # 80012004 <ipi_smode_event>
    800010a0:	4398                	lw	a4,0(a5)
    800010a2:	03f00793          	li	a5,63
    800010a6:	08e7ed63          	bltu	a5,a4,80001140 <sbi_ipi_init+0xca>
    800010aa:	00011717          	auipc	a4,0x11
    800010ae:	f5670713          	addi	a4,a4,-170 # 80012000 <ipi_halt_event>
    800010b2:	4318                	lw	a4,0(a4)
    800010b4:	08e7e663          	bltu	a5,a4,80001140 <sbi_ipi_init+0xca>
    800010b8:	94ca                	add	s1,s1,s2
    800010ba:	0004b023          	sd	zero,0(s1)
    800010be:	03093783          	ld	a5,48(s2)
    800010c2:	c799                	beqz	a5,800010d0 <sbi_ipi_init+0x5a>
    800010c4:	6fbc                	ld	a5,88(a5)
    800010c6:	7fbc                	ld	a5,120(a5)
    800010c8:	c781                	beqz	a5,800010d0 <sbi_ipi_init+0x5a>
    800010ca:	854e                	mv	a0,s3
    800010cc:	9782                	jalr	a5
    800010ce:	e501                	bnez	a0,800010d6 <sbi_ipi_init+0x60>
    800010d0:	30446073          	csrsi	mie,8
    800010d4:	4501                	li	a0,0
    800010d6:	70a2                	ld	ra,40(sp)
    800010d8:	7402                	ld	s0,32(sp)
    800010da:	64e2                	ld	s1,24(sp)
    800010dc:	6942                	ld	s2,16(sp)
    800010de:	69a2                	ld	s3,8(sp)
    800010e0:	6a02                	ld	s4,0(sp)
    800010e2:	6145                	addi	sp,sp,48
    800010e4:	8082                	ret
    800010e6:	0000f597          	auipc	a1,0xf
    800010ea:	3fa58593          	addi	a1,a1,1018 # 800104e0 <__func__.1950+0x4e0>
    800010ee:	4521                	li	a0,8
    800010f0:	228000ef          	jal	ra,80001318 <sbi_scratch_alloc_offset>
    800010f4:	00012797          	auipc	a5,0x12
    800010f8:	f2a7b623          	sd	a0,-212(a5) # 80013020 <ipi_data_off>
    800010fc:	84aa                	mv	s1,a0
    800010fe:	c521                	beqz	a0,80001146 <sbi_ipi_init+0xd0>
    80001100:	00011a17          	auipc	s4,0x11
    80001104:	f40a0a13          	addi	s4,s4,-192 # 80012040 <ipi_smode_ops>
    80001108:	030a3783          	ld	a5,48(s4)
    8000110c:	c3a1                	beqz	a5,8000114c <sbi_ipi_init+0xd6>
    8000110e:	8552                	mv	a0,s4
    80001110:	d2dff0ef          	jal	ra,80000e3c <sbi_ipi_event_create.part.0>
    80001114:	fc0541e3          	bltz	a0,800010d6 <sbi_ipi_init+0x60>
    80001118:	068a3703          	ld	a4,104(s4)
    8000111c:	00011697          	auipc	a3,0x11
    80001120:	eea6a423          	sw	a0,-280(a3) # 80012004 <ipi_smode_event>
    80001124:	c705                	beqz	a4,8000114c <sbi_ipi_init+0xd6>
    80001126:	00011517          	auipc	a0,0x11
    8000112a:	f5250513          	addi	a0,a0,-174 # 80012078 <ipi_halt_ops>
    8000112e:	d0fff0ef          	jal	ra,80000e3c <sbi_ipi_event_create.part.0>
    80001132:	fa0542e3          	bltz	a0,800010d6 <sbi_ipi_init+0x60>
    80001136:	00011717          	auipc	a4,0x11
    8000113a:	eca72523          	sw	a0,-310(a4) # 80012000 <ipi_halt_event>
    8000113e:	bfad                	j	800010b8 <sbi_ipi_init+0x42>
    80001140:	c1300513          	li	a0,-1005
    80001144:	bf49                	j	800010d6 <sbi_ipi_init+0x60>
    80001146:	c1200513          	li	a0,-1006
    8000114a:	b771                	j	800010d6 <sbi_ipi_init+0x60>
    8000114c:	5575                	li	a0,-3
    8000114e:	b761                	j	800010d6 <sbi_ipi_init+0x60>

0000000080001150 <sbi_ipi_exit>:
    80001150:	1101                	addi	sp,sp,-32
    80001152:	e822                	sd	s0,16(sp)
    80001154:	e426                	sd	s1,8(sp)
    80001156:	ec06                	sd	ra,24(sp)
    80001158:	1000                	addi	s0,sp,32
    8000115a:	84aa                	mv	s1,a0
    8000115c:	30447073          	csrci	mie,8
    80001160:	e9dff0ef          	jal	ra,80000ffc <sbi_ipi_process>
    80001164:	789c                	ld	a5,48(s1)
    80001166:	c789                	beqz	a5,80001170 <sbi_ipi_exit+0x20>
    80001168:	6fbc                	ld	a5,88(a5)
    8000116a:	63dc                	ld	a5,128(a5)
    8000116c:	c391                	beqz	a5,80001170 <sbi_ipi_exit+0x20>
    8000116e:	9782                	jalr	a5
    80001170:	60e2                	ld	ra,24(sp)
    80001172:	6442                	ld	s0,16(sp)
    80001174:	64a2                	ld	s1,8(sp)
    80001176:	6105                	addi	sp,sp,32
    80001178:	8082                	ret

000000008000117a <sbi_platform_get_features_str>:
    8000117a:	c971                	beqz	a0,8000124e <sbi_platform_get_features_str+0xd4>
    8000117c:	c9e9                	beqz	a1,8000124e <sbi_platform_get_features_str+0xd4>
    8000117e:	7159                	addi	sp,sp,-112
    80001180:	f0a2                	sd	s0,96(sp)
    80001182:	e0d2                	sd	s4,64(sp)
    80001184:	f486                	sd	ra,104(sp)
    80001186:	eca6                	sd	s1,88(sp)
    80001188:	e8ca                	sd	s2,80(sp)
    8000118a:	e4ce                	sd	s3,72(sp)
    8000118c:	fc56                	sd	s5,56(sp)
    8000118e:	f85a                	sd	s6,48(sp)
    80001190:	f45e                	sd	s7,40(sp)
    80001192:	f062                	sd	s8,32(sp)
    80001194:	ec66                	sd	s9,24(sp)
    80001196:	e86a                	sd	s10,16(sp)
    80001198:	e46e                	sd	s11,8(sp)
    8000119a:	1880                	addi	s0,sp,112
    8000119c:	8a32                	mv	s4,a2
    8000119e:	e205                	bnez	a2,800011be <sbi_platform_get_features_str+0x44>
    800011a0:	70a6                	ld	ra,104(sp)
    800011a2:	7406                	ld	s0,96(sp)
    800011a4:	64e6                	ld	s1,88(sp)
    800011a6:	6946                	ld	s2,80(sp)
    800011a8:	69a6                	ld	s3,72(sp)
    800011aa:	6a06                	ld	s4,64(sp)
    800011ac:	7ae2                	ld	s5,56(sp)
    800011ae:	7b42                	ld	s6,48(sp)
    800011b0:	7ba2                	ld	s7,40(sp)
    800011b2:	7c02                	ld	s8,32(sp)
    800011b4:	6ce2                	ld	s9,24(sp)
    800011b6:	6d42                	ld	s10,16(sp)
    800011b8:	6da2                	ld	s11,8(sp)
    800011ba:	6165                	addi	sp,sp,112
    800011bc:	8082                	ret
    800011be:	892e                	mv	s2,a1
    800011c0:	84aa                	mv	s1,a0
    800011c2:	4581                	li	a1,0
    800011c4:	854a                	mv	a0,s2
    800011c6:	39c000ef          	jal	ra,80001562 <sbi_memset>
    800011ca:	0484ba83          	ld	s5,72(s1)
    800011ce:	060a8763          	beqz	s5,8000123c <sbi_platform_get_features_str+0xc2>
    800011d2:	4991                	li	s3,4
    800011d4:	4b01                	li	s6,0
    800011d6:	4485                	li	s1,1
    800011d8:	4c9d                	li	s9,7
    800011da:	0000fc17          	auipc	s8,0xf
    800011de:	316c0c13          	addi	s8,s8,790 # 800104f0 <CSWTCH.2>
    800011e2:	000a0d9b          	sext.w	s11,s4
    800011e6:	0000fd17          	auipc	s10,0xf
    800011ea:	34ad0d13          	addi	s10,s10,842 # 80010530 <CSWTCH.2+0x40>
    800011ee:	0154f7b3          	and	a5,s1,s5
    800011f2:	39fd                	addiw	s3,s3,-1
    800011f4:	fff48713          	addi	a4,s1,-1
    800011f8:	cb85                	beqz	a5,80001228 <sbi_platform_get_features_str+0xae>
    800011fa:	00371793          	slli	a5,a4,0x3
    800011fe:	97e2                	add	a5,a5,s8
    80001200:	02ece463          	bltu	s9,a4,80001228 <sbi_platform_get_features_str+0xae>
    80001204:	0007bb83          	ld	s7,0(a5)
    80001208:	866a                	mv	a2,s10
    8000120a:	85ee                	mv	a1,s11
    8000120c:	86de                	mv	a3,s7
    8000120e:	01690533          	add	a0,s2,s6
    80001212:	000b8b63          	beqz	s7,80001228 <sbi_platform_get_features_str+0xae>
    80001216:	409020ef          	jal	ra,80003e1e <sbi_snprintf>
    8000121a:	855e                	mv	a0,s7
    8000121c:	22e000ef          	jal	ra,8000144a <sbi_strlen>
    80001220:	001b059b          	addiw	a1,s6,1
    80001224:	00a58b3b          	addw	s6,a1,a0
    80001228:	0486                	slli	s1,s1,0x1
    8000122a:	fc0992e3          	bnez	s3,800011ee <sbi_platform_get_features_str+0x74>
    8000122e:	000b0763          	beqz	s6,8000123c <sbi_platform_get_features_str+0xc2>
    80001232:	016905b3          	add	a1,s2,s6
    80001236:	fe058fa3          	sb	zero,-1(a1)
    8000123a:	b79d                	j	800011a0 <sbi_platform_get_features_str+0x26>
    8000123c:	8652                	mv	a2,s4
    8000123e:	0000f597          	auipc	a1,0xf
    80001242:	2fa58593          	addi	a1,a1,762 # 80010538 <CSWTCH.2+0x48>
    80001246:	854a                	mv	a0,s2
    80001248:	282000ef          	jal	ra,800014ca <sbi_strncpy>
    8000124c:	bf91                	j	800011a0 <sbi_platform_get_features_str+0x26>
    8000124e:	8082                	ret

0000000080001250 <sbi_platform_hart_index>:
    80001250:	1141                	addi	sp,sp,-16
    80001252:	e422                	sd	s0,8(sp)
    80001254:	0800                	addi	s0,sp,16
    80001256:	c505                	beqz	a0,8000127e <sbi_platform_hart_index+0x2e>
    80001258:	753c                	ld	a5,104(a0)
    8000125a:	872e                	mv	a4,a1
    8000125c:	c395                	beqz	a5,80001280 <sbi_platform_hart_index+0x30>
    8000125e:	4930                	lw	a2,80(a0)
    80001260:	ce19                	beqz	a2,8000127e <sbi_platform_hart_index+0x2e>
    80001262:	4398                	lw	a4,0(a5)
    80001264:	02b70263          	beq	a4,a1,80001288 <sbi_platform_hart_index+0x38>
    80001268:	0791                	addi	a5,a5,4
    8000126a:	4701                	li	a4,0
    8000126c:	a029                	j	80001276 <sbi_platform_hart_index+0x26>
    8000126e:	ffc7a683          	lw	a3,-4(a5)
    80001272:	00b68763          	beq	a3,a1,80001280 <sbi_platform_hart_index+0x30>
    80001276:	2705                	addiw	a4,a4,1
    80001278:	0791                	addi	a5,a5,4
    8000127a:	fec71ae3          	bne	a4,a2,8000126e <sbi_platform_hart_index+0x1e>
    8000127e:	577d                	li	a4,-1
    80001280:	6422                	ld	s0,8(sp)
    80001282:	853a                	mv	a0,a4
    80001284:	0141                	addi	sp,sp,16
    80001286:	8082                	ret
    80001288:	4701                	li	a4,0
    8000128a:	bfdd                	j	80001280 <sbi_platform_hart_index+0x30>

000000008000128c <sbi_scratch_init>:
    8000128c:	715d                	addi	sp,sp,-80
    8000128e:	e0a2                	sd	s0,64(sp)
    80001290:	fc26                	sd	s1,56(sp)
    80001292:	ec56                	sd	s5,24(sp)
    80001294:	e85a                	sd	s6,16(sp)
    80001296:	e45e                	sd	s7,8(sp)
    80001298:	e486                	sd	ra,72(sp)
    8000129a:	f84a                	sd	s2,48(sp)
    8000129c:	f44e                	sd	s3,40(sp)
    8000129e:	f052                	sd	s4,32(sp)
    800012a0:	0880                	addi	s0,sp,80
    800012a2:	03053903          	ld	s2,48(a0)
    800012a6:	8b2a                	mv	s6,a0
    800012a8:	4481                	li	s1,0
    800012aa:	00012b97          	auipc	s7,0x12
    800012ae:	066b8b93          	addi	s7,s7,102 # 80013310 <hartid_to_scratch_table>
    800012b2:	08000a93          	li	s5,128
    800012b6:	0004899b          	sext.w	s3,s1
    800012ba:	854a                	mv	a0,s2
    800012bc:	85ce                	mv	a1,s3
    800012be:	02090e63          	beqz	s2,800012fa <sbi_scratch_init+0x6e>
    800012c2:	05092a03          	lw	s4,80(s2)
    800012c6:	f8bff0ef          	jal	ra,80001250 <sbi_platform_hart_index>
    800012ca:	0005079b          	sext.w	a5,a0
    800012ce:	85ce                	mv	a1,s3
    800012d0:	854a                	mv	a0,s2
    800012d2:	0347f463          	bleu	s4,a5,800012fa <sbi_scratch_init+0x6e>
    800012d6:	038b3a03          	ld	s4,56(s6)
    800012da:	f77ff0ef          	jal	ra,80001250 <sbi_platform_hart_index>
    800012de:	02051593          	slli	a1,a0,0x20
    800012e2:	9181                	srli	a1,a1,0x20
    800012e4:	8526                	mv	a0,s1
    800012e6:	9a02                	jalr	s4
    800012e8:	00349793          	slli	a5,s1,0x3
    800012ec:	97de                	add	a5,a5,s7
    800012ee:	e388                	sd	a0,0(a5)
    800012f0:	c509                	beqz	a0,800012fa <sbi_scratch_init+0x6e>
    800012f2:	00011797          	auipc	a5,0x11
    800012f6:	d137af23          	sw	s3,-738(a5) # 80012010 <last_hartid_having_scratch>
    800012fa:	0485                	addi	s1,s1,1
    800012fc:	fb549de3          	bne	s1,s5,800012b6 <sbi_scratch_init+0x2a>
    80001300:	60a6                	ld	ra,72(sp)
    80001302:	6406                	ld	s0,64(sp)
    80001304:	74e2                	ld	s1,56(sp)
    80001306:	7942                	ld	s2,48(sp)
    80001308:	79a2                	ld	s3,40(sp)
    8000130a:	7a02                	ld	s4,32(sp)
    8000130c:	6ae2                	ld	s5,24(sp)
    8000130e:	6b42                	ld	s6,16(sp)
    80001310:	6ba2                	ld	s7,8(sp)
    80001312:	4501                	li	a0,0
    80001314:	6161                	addi	sp,sp,80
    80001316:	8082                	ret

0000000080001318 <sbi_scratch_alloc_offset>:
    80001318:	7139                	addi	sp,sp,-64
    8000131a:	f822                	sd	s0,48(sp)
    8000131c:	fc06                	sd	ra,56(sp)
    8000131e:	f426                	sd	s1,40(sp)
    80001320:	f04a                	sd	s2,32(sp)
    80001322:	ec4e                	sd	s3,24(sp)
    80001324:	e852                	sd	s4,16(sp)
    80001326:	e456                	sd	s5,8(sp)
    80001328:	0080                	addi	s0,sp,64
    8000132a:	cd51                	beqz	a0,800013c6 <sbi_scratch_alloc_offset+0xae>
    8000132c:	00757793          	andi	a5,a0,7
    80001330:	89aa                	mv	s3,a0
    80001332:	c781                	beqz	a5,8000133a <sbi_scratch_alloc_offset+0x22>
    80001334:	ff857993          	andi	s3,a0,-8
    80001338:	09a1                	addi	s3,s3,8
    8000133a:	00012517          	auipc	a0,0x12
    8000133e:	cee50513          	addi	a0,a0,-786 # 80013028 <extra_lock>
    80001342:	6d3010ef          	jal	ra,80003214 <spin_lock>
    80001346:	00011797          	auipc	a5,0x11
    8000134a:	cc278793          	addi	a5,a5,-830 # 80012008 <extra_offset>
    8000134e:	0007ba03          	ld	s4,0(a5)
    80001352:	6705                	lui	a4,0x1
    80001354:	00012517          	auipc	a0,0x12
    80001358:	cd450513          	addi	a0,a0,-812 # 80013028 <extra_lock>
    8000135c:	013a07b3          	add	a5,s4,s3
    80001360:	04f76f63          	bltu	a4,a5,800013be <sbi_scratch_alloc_offset+0xa6>
    80001364:	00011717          	auipc	a4,0x11
    80001368:	caf73223          	sd	a5,-860(a4) # 80012008 <extra_offset>
    8000136c:	6c7010ef          	jal	ra,80003232 <spin_unlock>
    80001370:	040a0b63          	beqz	s4,800013c6 <sbi_scratch_alloc_offset+0xae>
    80001374:	00011a97          	auipc	s5,0x11
    80001378:	c9ca8a93          	addi	s5,s5,-868 # 80012010 <last_hartid_having_scratch>
    8000137c:	000aa783          	lw	a5,0(s5)
    80001380:	c78d                	beqz	a5,800013aa <sbi_scratch_alloc_offset+0x92>
    80001382:	00012917          	auipc	s2,0x12
    80001386:	f8e90913          	addi	s2,s2,-114 # 80013310 <hartid_to_scratch_table>
    8000138a:	4481                	li	s1,0
    8000138c:	00093783          	ld	a5,0(s2)
    80001390:	2485                	addiw	s1,s1,1
    80001392:	864e                	mv	a2,s3
    80001394:	4581                	li	a1,0
    80001396:	01478533          	add	a0,a5,s4
    8000139a:	c399                	beqz	a5,800013a0 <sbi_scratch_alloc_offset+0x88>
    8000139c:	1c6000ef          	jal	ra,80001562 <sbi_memset>
    800013a0:	000aa783          	lw	a5,0(s5)
    800013a4:	0921                	addi	s2,s2,8
    800013a6:	fef4e3e3          	bltu	s1,a5,8000138c <sbi_scratch_alloc_offset+0x74>
    800013aa:	70e2                	ld	ra,56(sp)
    800013ac:	7442                	ld	s0,48(sp)
    800013ae:	8552                	mv	a0,s4
    800013b0:	74a2                	ld	s1,40(sp)
    800013b2:	7902                	ld	s2,32(sp)
    800013b4:	69e2                	ld	s3,24(sp)
    800013b6:	6a42                	ld	s4,16(sp)
    800013b8:	6aa2                	ld	s5,8(sp)
    800013ba:	6121                	addi	sp,sp,64
    800013bc:	8082                	ret
    800013be:	675010ef          	jal	ra,80003232 <spin_unlock>
    800013c2:	4a01                	li	s4,0
    800013c4:	b7dd                	j	800013aa <sbi_scratch_alloc_offset+0x92>
    800013c6:	4a01                	li	s4,0
    800013c8:	b7cd                	j	800013aa <sbi_scratch_alloc_offset+0x92>

00000000800013ca <sbi_scratch_free_offset>:
    800013ca:	1141                	addi	sp,sp,-16
    800013cc:	e422                	sd	s0,8(sp)
    800013ce:	0800                	addi	s0,sp,16
    800013d0:	6422                	ld	s0,8(sp)
    800013d2:	0141                	addi	sp,sp,16
    800013d4:	8082                	ret

00000000800013d6 <sbi_strcmp>:
    800013d6:	1141                	addi	sp,sp,-16
    800013d8:	e422                	sd	s0,8(sp)
    800013da:	0800                	addi	s0,sp,16
    800013dc:	00054703          	lbu	a4,0(a0)
    800013e0:	0005c783          	lbu	a5,0(a1)
    800013e4:	00e79b63          	bne	a5,a4,800013fa <sbi_strcmp+0x24>
    800013e8:	cf99                	beqz	a5,80001406 <sbi_strcmp+0x30>
    800013ea:	0505                	addi	a0,a0,1
    800013ec:	0585                	addi	a1,a1,1
    800013ee:	0005c783          	lbu	a5,0(a1)
    800013f2:	00054703          	lbu	a4,0(a0)
    800013f6:	fef709e3          	beq	a4,a5,800013e8 <sbi_strcmp+0x12>
    800013fa:	6422                	ld	s0,8(sp)
    800013fc:	0007051b          	sext.w	a0,a4
    80001400:	9d1d                	subw	a0,a0,a5
    80001402:	0141                	addi	sp,sp,16
    80001404:	8082                	ret
    80001406:	6422                	ld	s0,8(sp)
    80001408:	4501                	li	a0,0
    8000140a:	9d1d                	subw	a0,a0,a5
    8000140c:	0141                	addi	sp,sp,16
    8000140e:	8082                	ret

0000000080001410 <sbi_strncmp>:
    80001410:	1141                	addi	sp,sp,-16
    80001412:	e422                	sd	s0,8(sp)
    80001414:	0800                	addi	s0,sp,16
    80001416:	0005c703          	lbu	a4,0(a1)
    8000141a:	00054783          	lbu	a5,0(a0)
    8000141e:	c20d                	beqz	a2,80001440 <sbi_strncmp+0x30>
    80001420:	02f71063          	bne	a4,a5,80001440 <sbi_strncmp+0x30>
    80001424:	cf11                	beqz	a4,80001440 <sbi_strncmp+0x30>
    80001426:	962a                	add	a2,a2,a0
    80001428:	a021                	j	80001430 <sbi_strncmp+0x20>
    8000142a:	00e79b63          	bne	a5,a4,80001440 <sbi_strncmp+0x30>
    8000142e:	cb89                	beqz	a5,80001440 <sbi_strncmp+0x30>
    80001430:	0505                	addi	a0,a0,1
    80001432:	0585                	addi	a1,a1,1
    80001434:	00054783          	lbu	a5,0(a0)
    80001438:	0005c703          	lbu	a4,0(a1)
    8000143c:	fec517e3          	bne	a0,a2,8000142a <sbi_strncmp+0x1a>
    80001440:	6422                	ld	s0,8(sp)
    80001442:	40e7853b          	subw	a0,a5,a4
    80001446:	0141                	addi	sp,sp,16
    80001448:	8082                	ret

000000008000144a <sbi_strlen>:
    8000144a:	1141                	addi	sp,sp,-16
    8000144c:	e422                	sd	s0,8(sp)
    8000144e:	0800                	addi	s0,sp,16
    80001450:	00054783          	lbu	a5,0(a0)
    80001454:	cf81                	beqz	a5,8000146c <sbi_strlen+0x22>
    80001456:	4781                	li	a5,0
    80001458:	0785                	addi	a5,a5,1
    8000145a:	00f50733          	add	a4,a0,a5
    8000145e:	00074703          	lbu	a4,0(a4)
    80001462:	fb7d                	bnez	a4,80001458 <sbi_strlen+0xe>
    80001464:	6422                	ld	s0,8(sp)
    80001466:	853e                	mv	a0,a5
    80001468:	0141                	addi	sp,sp,16
    8000146a:	8082                	ret
    8000146c:	6422                	ld	s0,8(sp)
    8000146e:	4781                	li	a5,0
    80001470:	853e                	mv	a0,a5
    80001472:	0141                	addi	sp,sp,16
    80001474:	8082                	ret

0000000080001476 <sbi_strnlen>:
    80001476:	1141                	addi	sp,sp,-16
    80001478:	e422                	sd	s0,8(sp)
    8000147a:	0800                	addi	s0,sp,16
    8000147c:	00054783          	lbu	a5,0(a0)
    80001480:	c395                	beqz	a5,800014a4 <sbi_strnlen+0x2e>
    80001482:	4781                	li	a5,0
    80001484:	e581                	bnez	a1,8000148c <sbi_strnlen+0x16>
    80001486:	a819                	j	8000149c <sbi_strnlen+0x26>
    80001488:	00d7fa63          	bleu	a3,a5,8000149c <sbi_strnlen+0x26>
    8000148c:	0785                	addi	a5,a5,1
    8000148e:	00f50733          	add	a4,a0,a5
    80001492:	00074703          	lbu	a4,0(a4)
    80001496:	40f586b3          	sub	a3,a1,a5
    8000149a:	f77d                	bnez	a4,80001488 <sbi_strnlen+0x12>
    8000149c:	6422                	ld	s0,8(sp)
    8000149e:	853e                	mv	a0,a5
    800014a0:	0141                	addi	sp,sp,16
    800014a2:	8082                	ret
    800014a4:	4781                	li	a5,0
    800014a6:	bfdd                	j	8000149c <sbi_strnlen+0x26>

00000000800014a8 <sbi_strcpy>:
    800014a8:	1141                	addi	sp,sp,-16
    800014aa:	e422                	sd	s0,8(sp)
    800014ac:	0800                	addi	s0,sp,16
    800014ae:	0005c783          	lbu	a5,0(a1)
    800014b2:	cb89                	beqz	a5,800014c4 <sbi_strcpy+0x1c>
    800014b4:	872a                	mv	a4,a0
    800014b6:	0705                	addi	a4,a4,1
    800014b8:	0585                	addi	a1,a1,1
    800014ba:	fef70fa3          	sb	a5,-1(a4)
    800014be:	0005c783          	lbu	a5,0(a1)
    800014c2:	fbf5                	bnez	a5,800014b6 <sbi_strcpy+0xe>
    800014c4:	6422                	ld	s0,8(sp)
    800014c6:	0141                	addi	sp,sp,16
    800014c8:	8082                	ret

00000000800014ca <sbi_strncpy>:
    800014ca:	1141                	addi	sp,sp,-16
    800014cc:	e422                	sd	s0,8(sp)
    800014ce:	0800                	addi	s0,sp,16
    800014d0:	c205                	beqz	a2,800014f0 <sbi_strncpy+0x26>
    800014d2:	0005c703          	lbu	a4,0(a1)
    800014d6:	cf09                	beqz	a4,800014f0 <sbi_strncpy+0x26>
    800014d8:	962a                	add	a2,a2,a0
    800014da:	87aa                	mv	a5,a0
    800014dc:	a021                	j	800014e4 <sbi_strncpy+0x1a>
    800014de:	0005c703          	lbu	a4,0(a1)
    800014e2:	c719                	beqz	a4,800014f0 <sbi_strncpy+0x26>
    800014e4:	0785                	addi	a5,a5,1
    800014e6:	fee78fa3          	sb	a4,-1(a5)
    800014ea:	0585                	addi	a1,a1,1
    800014ec:	fec799e3          	bne	a5,a2,800014de <sbi_strncpy+0x14>
    800014f0:	6422                	ld	s0,8(sp)
    800014f2:	0141                	addi	sp,sp,16
    800014f4:	8082                	ret

00000000800014f6 <sbi_strchr>:
    800014f6:	1141                	addi	sp,sp,-16
    800014f8:	e422                	sd	s0,8(sp)
    800014fa:	0800                	addi	s0,sp,16
    800014fc:	00054783          	lbu	a5,0(a0)
    80001500:	cb89                	beqz	a5,80001512 <sbi_strchr+0x1c>
    80001502:	0ff5f593          	andi	a1,a1,255
    80001506:	00f58763          	beq	a1,a5,80001514 <sbi_strchr+0x1e>
    8000150a:	0505                	addi	a0,a0,1
    8000150c:	00054783          	lbu	a5,0(a0)
    80001510:	fbfd                	bnez	a5,80001506 <sbi_strchr+0x10>
    80001512:	4501                	li	a0,0
    80001514:	6422                	ld	s0,8(sp)
    80001516:	0141                	addi	sp,sp,16
    80001518:	8082                	ret

000000008000151a <sbi_strrchr>:
    8000151a:	1141                	addi	sp,sp,-16
    8000151c:	e422                	sd	s0,8(sp)
    8000151e:	0800                	addi	s0,sp,16
    80001520:	00054703          	lbu	a4,0(a0)
    80001524:	0ff5f593          	andi	a1,a1,255
    80001528:	cb0d                	beqz	a4,8000155a <sbi_strrchr+0x40>
    8000152a:	4701                	li	a4,0
    8000152c:	0705                	addi	a4,a4,1
    8000152e:	00e507b3          	add	a5,a0,a4
    80001532:	0007c683          	lbu	a3,0(a5)
    80001536:	fafd                	bnez	a3,8000152c <sbi_strrchr+0x12>
    80001538:	8736                	mv	a4,a3
    8000153a:	00f57963          	bleu	a5,a0,8000154c <sbi_strrchr+0x32>
    8000153e:	00b70a63          	beq	a4,a1,80001552 <sbi_strrchr+0x38>
    80001542:	17fd                	addi	a5,a5,-1
    80001544:	0007c703          	lbu	a4,0(a5)
    80001548:	fef51be3          	bne	a0,a5,8000153e <sbi_strrchr+0x24>
    8000154c:	00b70363          	beq	a4,a1,80001552 <sbi_strrchr+0x38>
    80001550:	4781                	li	a5,0
    80001552:	6422                	ld	s0,8(sp)
    80001554:	853e                	mv	a0,a5
    80001556:	0141                	addi	sp,sp,16
    80001558:	8082                	ret
    8000155a:	87aa                	mv	a5,a0
    8000155c:	feb71ae3          	bne	a4,a1,80001550 <sbi_strrchr+0x36>
    80001560:	bfcd                	j	80001552 <sbi_strrchr+0x38>

0000000080001562 <sbi_memset>:
    80001562:	1141                	addi	sp,sp,-16
    80001564:	e422                	sd	s0,8(sp)
    80001566:	0800                	addi	s0,sp,16
    80001568:	00c50733          	add	a4,a0,a2
    8000156c:	ca09                	beqz	a2,8000157e <sbi_memset+0x1c>
    8000156e:	0ff5f593          	andi	a1,a1,255
    80001572:	87aa                	mv	a5,a0
    80001574:	0785                	addi	a5,a5,1
    80001576:	feb78fa3          	sb	a1,-1(a5)
    8000157a:	fee79de3          	bne	a5,a4,80001574 <sbi_memset+0x12>
    8000157e:	6422                	ld	s0,8(sp)
    80001580:	0141                	addi	sp,sp,16
    80001582:	8082                	ret

0000000080001584 <sbi_memcpy>:
    80001584:	1141                	addi	sp,sp,-16
    80001586:	e422                	sd	s0,8(sp)
    80001588:	0800                	addi	s0,sp,16
    8000158a:	ca19                	beqz	a2,800015a0 <sbi_memcpy+0x1c>
    8000158c:	962a                	add	a2,a2,a0
    8000158e:	87aa                	mv	a5,a0
    80001590:	0585                	addi	a1,a1,1
    80001592:	fff5c703          	lbu	a4,-1(a1)
    80001596:	0785                	addi	a5,a5,1
    80001598:	fee78fa3          	sb	a4,-1(a5)
    8000159c:	fec79ae3          	bne	a5,a2,80001590 <sbi_memcpy+0xc>
    800015a0:	6422                	ld	s0,8(sp)
    800015a2:	0141                	addi	sp,sp,16
    800015a4:	8082                	ret

00000000800015a6 <sbi_memmove>:
    800015a6:	1141                	addi	sp,sp,-16
    800015a8:	e422                	sd	s0,8(sp)
    800015aa:	0800                	addi	s0,sp,16
    800015ac:	00b50f63          	beq	a0,a1,800015ca <sbi_memmove+0x24>
    800015b0:	02b57063          	bleu	a1,a0,800015d0 <sbi_memmove+0x2a>
    800015b4:	ca19                	beqz	a2,800015ca <sbi_memmove+0x24>
    800015b6:	962a                	add	a2,a2,a0
    800015b8:	87aa                	mv	a5,a0
    800015ba:	0585                	addi	a1,a1,1
    800015bc:	fff5c703          	lbu	a4,-1(a1)
    800015c0:	0785                	addi	a5,a5,1
    800015c2:	fee78fa3          	sb	a4,-1(a5)
    800015c6:	fef61ae3          	bne	a2,a5,800015ba <sbi_memmove+0x14>
    800015ca:	6422                	ld	s0,8(sp)
    800015cc:	0141                	addi	sp,sp,16
    800015ce:	8082                	ret
    800015d0:	fff60713          	addi	a4,a2,-1
    800015d4:	00e507b3          	add	a5,a0,a4
    800015d8:	95ba                	add	a1,a1,a4
    800015da:	da65                	beqz	a2,800015ca <sbi_memmove+0x24>
    800015dc:	fff50693          	addi	a3,a0,-1
    800015e0:	15fd                	addi	a1,a1,-1
    800015e2:	0015c703          	lbu	a4,1(a1)
    800015e6:	17fd                	addi	a5,a5,-1
    800015e8:	00e780a3          	sb	a4,1(a5)
    800015ec:	fed79ae3          	bne	a5,a3,800015e0 <sbi_memmove+0x3a>
    800015f0:	6422                	ld	s0,8(sp)
    800015f2:	0141                	addi	sp,sp,16
    800015f4:	8082                	ret

00000000800015f6 <sbi_memcmp>:
    800015f6:	1141                	addi	sp,sp,-16
    800015f8:	e422                	sd	s0,8(sp)
    800015fa:	0800                	addi	s0,sp,16
    800015fc:	c21d                	beqz	a2,80001622 <sbi_memcmp+0x2c>
    800015fe:	00054783          	lbu	a5,0(a0)
    80001602:	0005c703          	lbu	a4,0(a1)
    80001606:	02f71263          	bne	a4,a5,8000162a <sbi_memcmp+0x34>
    8000160a:	962a                	add	a2,a2,a0
    8000160c:	a039                	j	8000161a <sbi_memcmp+0x24>
    8000160e:	00054783          	lbu	a5,0(a0)
    80001612:	0005c703          	lbu	a4,0(a1)
    80001616:	00e79a63          	bne	a5,a4,8000162a <sbi_memcmp+0x34>
    8000161a:	0505                	addi	a0,a0,1
    8000161c:	0585                	addi	a1,a1,1
    8000161e:	fec518e3          	bne	a0,a2,8000160e <sbi_memcmp+0x18>
    80001622:	6422                	ld	s0,8(sp)
    80001624:	4501                	li	a0,0
    80001626:	0141                	addi	sp,sp,16
    80001628:	8082                	ret
    8000162a:	6422                	ld	s0,8(sp)
    8000162c:	40e7853b          	subw	a0,a5,a4
    80001630:	0141                	addi	sp,sp,16
    80001632:	8082                	ret

0000000080001634 <sbi_memchr>:
    80001634:	1141                	addi	sp,sp,-16
    80001636:	e422                	sd	s0,8(sp)
    80001638:	0800                	addi	s0,sp,16
    8000163a:	c605                	beqz	a2,80001662 <sbi_memchr+0x2e>
    8000163c:	00054703          	lbu	a4,0(a0)
    80001640:	0ff5f593          	andi	a1,a1,255
    80001644:	00150793          	addi	a5,a0,1
    80001648:	02b70263          	beq	a4,a1,8000166c <sbi_memchr+0x38>
    8000164c:	962a                	add	a2,a2,a0
    8000164e:	a031                	j	8000165a <sbi_memchr+0x26>
    80001650:	fff74683          	lbu	a3,-1(a4)
    80001654:	00b68863          	beq	a3,a1,80001664 <sbi_memchr+0x30>
    80001658:	87ba                	mv	a5,a4
    8000165a:	00178713          	addi	a4,a5,1
    8000165e:	fef619e3          	bne	a2,a5,80001650 <sbi_memchr+0x1c>
    80001662:	4781                	li	a5,0
    80001664:	6422                	ld	s0,8(sp)
    80001666:	853e                	mv	a0,a5
    80001668:	0141                	addi	sp,sp,16
    8000166a:	8082                	ret
    8000166c:	87aa                	mv	a5,a0
    8000166e:	bfdd                	j	80001664 <sbi_memchr+0x30>

0000000080001670 <sbi_platform_timer_value>:
    80001670:	cd19                	beqz	a0,8000168e <sbi_platform_timer_value+0x1e>
    80001672:	6d3c                	ld	a5,88(a0)
    80001674:	4501                	li	a0,0
    80001676:	6bdc                	ld	a5,144(a5)
    80001678:	cb91                	beqz	a5,8000168c <sbi_platform_timer_value+0x1c>
    8000167a:	1141                	addi	sp,sp,-16
    8000167c:	e022                	sd	s0,0(sp)
    8000167e:	e406                	sd	ra,8(sp)
    80001680:	0800                	addi	s0,sp,16
    80001682:	9782                	jalr	a5
    80001684:	60a2                	ld	ra,8(sp)
    80001686:	6402                	ld	s0,0(sp)
    80001688:	0141                	addi	sp,sp,16
    8000168a:	8082                	ret
    8000168c:	8082                	ret
    8000168e:	4501                	li	a0,0
    80001690:	8082                	ret

0000000080001692 <get_ticks>:
    80001692:	1141                	addi	sp,sp,-16
    80001694:	e422                	sd	s0,8(sp)
    80001696:	0800                	addi	s0,sp,16
    80001698:	c0102573          	rdtime	a0
    8000169c:	6422                	ld	s0,8(sp)
    8000169e:	0141                	addi	sp,sp,16
    800016a0:	8082                	ret

00000000800016a2 <sbi_timer_value>:
    800016a2:	1141                	addi	sp,sp,-16
    800016a4:	e022                	sd	s0,0(sp)
    800016a6:	e406                	sd	ra,8(sp)
    800016a8:	0800                	addi	s0,sp,16
    800016aa:	00012797          	auipc	a5,0x12
    800016ae:	98678793          	addi	a5,a5,-1658 # 80013030 <get_time_val>
    800016b2:	639c                	ld	a5,0(a5)
    800016b4:	34002773          	csrr	a4,mscratch
    800016b8:	7b08                	ld	a0,48(a4)
    800016ba:	9782                	jalr	a5
    800016bc:	60a2                	ld	ra,8(sp)
    800016be:	6402                	ld	s0,0(sp)
    800016c0:	0141                	addi	sp,sp,16
    800016c2:	8082                	ret

00000000800016c4 <sbi_timer_virt_value>:
    800016c4:	1101                	addi	sp,sp,-32
    800016c6:	e822                	sd	s0,16(sp)
    800016c8:	ec06                	sd	ra,24(sp)
    800016ca:	e426                	sd	s1,8(sp)
    800016cc:	1000                	addi	s0,sp,32
    800016ce:	340024f3          	csrr	s1,mscratch
    800016d2:	00012797          	auipc	a5,0x12
    800016d6:	96678793          	addi	a5,a5,-1690 # 80013038 <time_delta_off>
    800016da:	6398                	ld	a4,0(a5)
    800016dc:	00012797          	auipc	a5,0x12
    800016e0:	95478793          	addi	a5,a5,-1708 # 80013030 <get_time_val>
    800016e4:	639c                	ld	a5,0(a5)
    800016e6:	94ba                	add	s1,s1,a4
    800016e8:	34002773          	csrr	a4,mscratch
    800016ec:	7b08                	ld	a0,48(a4)
    800016ee:	9782                	jalr	a5
    800016f0:	609c                	ld	a5,0(s1)
    800016f2:	60e2                	ld	ra,24(sp)
    800016f4:	6442                	ld	s0,16(sp)
    800016f6:	64a2                	ld	s1,8(sp)
    800016f8:	953e                	add	a0,a0,a5
    800016fa:	6105                	addi	sp,sp,32
    800016fc:	8082                	ret

00000000800016fe <sbi_timer_get_delta>:
    800016fe:	1141                	addi	sp,sp,-16
    80001700:	e422                	sd	s0,8(sp)
    80001702:	0800                	addi	s0,sp,16
    80001704:	34002773          	csrr	a4,mscratch
    80001708:	00012797          	auipc	a5,0x12
    8000170c:	93078793          	addi	a5,a5,-1744 # 80013038 <time_delta_off>
    80001710:	639c                	ld	a5,0(a5)
    80001712:	6422                	ld	s0,8(sp)
    80001714:	97ba                	add	a5,a5,a4
    80001716:	6388                	ld	a0,0(a5)
    80001718:	0141                	addi	sp,sp,16
    8000171a:	8082                	ret

000000008000171c <sbi_timer_set_delta>:
    8000171c:	1141                	addi	sp,sp,-16
    8000171e:	e422                	sd	s0,8(sp)
    80001720:	0800                	addi	s0,sp,16
    80001722:	34002773          	csrr	a4,mscratch
    80001726:	00012797          	auipc	a5,0x12
    8000172a:	91278793          	addi	a5,a5,-1774 # 80013038 <time_delta_off>
    8000172e:	639c                	ld	a5,0(a5)
    80001730:	97ba                	add	a5,a5,a4
    80001732:	e388                	sd	a0,0(a5)
    80001734:	6422                	ld	s0,8(sp)
    80001736:	0141                	addi	sp,sp,16
    80001738:	8082                	ret

000000008000173a <sbi_timer_set_delta_upper>:
    8000173a:	1141                	addi	sp,sp,-16
    8000173c:	e422                	sd	s0,8(sp)
    8000173e:	0800                	addi	s0,sp,16
    80001740:	340027f3          	csrr	a5,mscratch
    80001744:	00012717          	auipc	a4,0x12
    80001748:	8f470713          	addi	a4,a4,-1804 # 80013038 <time_delta_off>
    8000174c:	6318                	ld	a4,0(a4)
    8000174e:	97ba                	add	a5,a5,a4
    80001750:	c3c8                	sw	a0,4(a5)
    80001752:	6422                	ld	s0,8(sp)
    80001754:	0141                	addi	sp,sp,16
    80001756:	8082                	ret

0000000080001758 <sbi_timer_event_start>:
    80001758:	340027f3          	csrr	a5,mscratch
    8000175c:	7b9c                	ld	a5,48(a5)
    8000175e:	c78d                	beqz	a5,80001788 <sbi_timer_event_start+0x30>
    80001760:	6fbc                	ld	a5,88(a5)
    80001762:	6fdc                	ld	a5,152(a5)
    80001764:	c395                	beqz	a5,80001788 <sbi_timer_event_start+0x30>
    80001766:	1141                	addi	sp,sp,-16
    80001768:	e022                	sd	s0,0(sp)
    8000176a:	e406                	sd	ra,8(sp)
    8000176c:	0800                	addi	s0,sp,16
    8000176e:	9782                	jalr	a5
    80001770:	02000793          	li	a5,32
    80001774:	3447b073          	csrc	mip,a5
    80001778:	08000793          	li	a5,128
    8000177c:	3047a073          	csrs	mie,a5
    80001780:	60a2                	ld	ra,8(sp)
    80001782:	6402                	ld	s0,0(sp)
    80001784:	0141                	addi	sp,sp,16
    80001786:	8082                	ret
    80001788:	02000793          	li	a5,32
    8000178c:	3447b073          	csrc	mip,a5
    80001790:	08000793          	li	a5,128
    80001794:	3047a073          	csrs	mie,a5
    80001798:	8082                	ret

000000008000179a <sbi_timer_process>:
    8000179a:	1141                	addi	sp,sp,-16
    8000179c:	e422                	sd	s0,8(sp)
    8000179e:	0800                	addi	s0,sp,16
    800017a0:	08000793          	li	a5,128
    800017a4:	3047b073          	csrc	mie,a5
    800017a8:	02000793          	li	a5,32
    800017ac:	3447a073          	csrs	mip,a5
    800017b0:	6422                	ld	s0,8(sp)
    800017b2:	0141                	addi	sp,sp,16
    800017b4:	8082                	ret

00000000800017b6 <sbi_timer_init>:
    800017b6:	7179                	addi	sp,sp,-48
    800017b8:	f022                	sd	s0,32(sp)
    800017ba:	ec26                	sd	s1,24(sp)
    800017bc:	e44e                	sd	s3,8(sp)
    800017be:	f406                	sd	ra,40(sp)
    800017c0:	e84a                	sd	s2,16(sp)
    800017c2:	1800                	addi	s0,sp,48
    800017c4:	84aa                	mv	s1,a0
    800017c6:	89ae                	mv	s3,a1
    800017c8:	03053903          	ld	s2,48(a0)
    800017cc:	eda5                	bnez	a1,80001844 <sbi_timer_init+0x8e>
    800017ce:	00012797          	auipc	a5,0x12
    800017d2:	86a78793          	addi	a5,a5,-1942 # 80013038 <time_delta_off>
    800017d6:	6388                	ld	a0,0(a5)
    800017d8:	c151                	beqz	a0,8000185c <sbi_timer_init+0xa6>
    800017da:	9526                	add	a0,a0,s1
    800017dc:	00053023          	sd	zero,0(a0)
    800017e0:	00090963          	beqz	s2,800017f2 <sbi_timer_init+0x3c>
    800017e4:	05893783          	ld	a5,88(s2)
    800017e8:	77dc                	ld	a5,168(a5)
    800017ea:	c781                	beqz	a5,800017f2 <sbi_timer_init+0x3c>
    800017ec:	854e                	mv	a0,s3
    800017ee:	9782                	jalr	a5
    800017f0:	e11d                	bnez	a0,80001816 <sbi_timer_init+0x60>
    800017f2:	4591                	li	a1,4
    800017f4:	8526                	mv	a0,s1
    800017f6:	799030ef          	jal	ra,8000578e <sbi_hart_has_feature>
    800017fa:	e50d                	bnez	a0,80001824 <sbi_timer_init+0x6e>
    800017fc:	04893783          	ld	a5,72(s2)
    80001800:	8b85                	andi	a5,a5,1
    80001802:	c3a5                	beqz	a5,80001862 <sbi_timer_init+0xac>
    80001804:	00000797          	auipc	a5,0x0
    80001808:	e6c78793          	addi	a5,a5,-404 # 80001670 <sbi_platform_timer_value>
    8000180c:	00012717          	auipc	a4,0x12
    80001810:	82f73223          	sd	a5,-2012(a4) # 80013030 <get_time_val>
    80001814:	4501                	li	a0,0
    80001816:	70a2                	ld	ra,40(sp)
    80001818:	7402                	ld	s0,32(sp)
    8000181a:	64e2                	ld	s1,24(sp)
    8000181c:	6942                	ld	s2,16(sp)
    8000181e:	69a2                	ld	s3,8(sp)
    80001820:	6145                	addi	sp,sp,48
    80001822:	8082                	ret
    80001824:	70a2                	ld	ra,40(sp)
    80001826:	7402                	ld	s0,32(sp)
    80001828:	00000797          	auipc	a5,0x0
    8000182c:	e6a78793          	addi	a5,a5,-406 # 80001692 <get_ticks>
    80001830:	00012717          	auipc	a4,0x12
    80001834:	80f73023          	sd	a5,-2048(a4) # 80013030 <get_time_val>
    80001838:	64e2                	ld	s1,24(sp)
    8000183a:	6942                	ld	s2,16(sp)
    8000183c:	69a2                	ld	s3,8(sp)
    8000183e:	4501                	li	a0,0
    80001840:	6145                	addi	sp,sp,48
    80001842:	8082                	ret
    80001844:	0000f597          	auipc	a1,0xf
    80001848:	d2458593          	addi	a1,a1,-732 # 80010568 <CSWTCH.2+0x78>
    8000184c:	4521                	li	a0,8
    8000184e:	acbff0ef          	jal	ra,80001318 <sbi_scratch_alloc_offset>
    80001852:	00011797          	auipc	a5,0x11
    80001856:	7ea7b323          	sd	a0,2022(a5) # 80013038 <time_delta_off>
    8000185a:	f141                	bnez	a0,800017da <sbi_timer_init+0x24>
    8000185c:	c1200513          	li	a0,-1006
    80001860:	bf5d                	j	80001816 <sbi_timer_init+0x60>
    80001862:	c1800513          	li	a0,-1000
    80001866:	bf45                	j	80001816 <sbi_timer_init+0x60>

0000000080001868 <sbi_timer_exit>:
    80001868:	1101                	addi	sp,sp,-32
    8000186a:	e822                	sd	s0,16(sp)
    8000186c:	e426                	sd	s1,8(sp)
    8000186e:	ec06                	sd	ra,24(sp)
    80001870:	1000                	addi	s0,sp,32
    80001872:	791c                	ld	a5,48(a0)
    80001874:	84aa                	mv	s1,a0
    80001876:	c789                	beqz	a5,80001880 <sbi_timer_exit+0x18>
    80001878:	6fbc                	ld	a5,88(a5)
    8000187a:	73dc                	ld	a5,160(a5)
    8000187c:	c391                	beqz	a5,80001880 <sbi_timer_exit+0x18>
    8000187e:	9782                	jalr	a5
    80001880:	02000793          	li	a5,32
    80001884:	3447b073          	csrc	mip,a5
    80001888:	08000793          	li	a5,128
    8000188c:	3047b073          	csrc	mie,a5
    80001890:	789c                	ld	a5,48(s1)
    80001892:	c789                	beqz	a5,8000189c <sbi_timer_exit+0x34>
    80001894:	6fbc                	ld	a5,88(a5)
    80001896:	7bdc                	ld	a5,176(a5)
    80001898:	c391                	beqz	a5,8000189c <sbi_timer_exit+0x34>
    8000189a:	9782                	jalr	a5
    8000189c:	60e2                	ld	ra,24(sp)
    8000189e:	6442                	ld	s0,16(sp)
    800018a0:	64a2                	ld	s1,8(sp)
    800018a2:	6105                	addi	sp,sp,32
    800018a4:	8082                	ret

00000000800018a6 <sbi_tlb_local_sfence_vma>:
    800018a6:	1141                	addi	sp,sp,-16
    800018a8:	e422                	sd	s0,8(sp)
    800018aa:	0800                	addi	s0,sp,16
    800018ac:	6110                	ld	a2,0(a0)
    800018ae:	6514                	ld	a3,8(a0)
    800018b0:	00d667b3          	or	a5,a2,a3
    800018b4:	c38d                	beqz	a5,800018d6 <sbi_tlb_local_sfence_vma+0x30>
    800018b6:	57fd                	li	a5,-1
    800018b8:	00f68f63          	beq	a3,a5,800018d6 <sbi_tlb_local_sfence_vma+0x30>
    800018bc:	4781                	li	a5,0
    800018be:	6585                	lui	a1,0x1
    800018c0:	ca81                	beqz	a3,800018d0 <sbi_tlb_local_sfence_vma+0x2a>
    800018c2:	00f60733          	add	a4,a2,a5
    800018c6:	12070073          	sfence.vma	a4
    800018ca:	97ae                	add	a5,a5,a1
    800018cc:	fed7ebe3          	bltu	a5,a3,800018c2 <sbi_tlb_local_sfence_vma+0x1c>
    800018d0:	6422                	ld	s0,8(sp)
    800018d2:	0141                	addi	sp,sp,16
    800018d4:	8082                	ret
    800018d6:	12000073          	sfence.vma
    800018da:	6422                	ld	s0,8(sp)
    800018dc:	0141                	addi	sp,sp,16
    800018de:	8082                	ret

00000000800018e0 <sbi_tlb_local_sfence_vma_asid>:
    800018e0:	1141                	addi	sp,sp,-16
    800018e2:	e422                	sd	s0,8(sp)
    800018e4:	0800                	addi	s0,sp,16
    800018e6:	6110                	ld	a2,0(a0)
    800018e8:	6514                	ld	a3,8(a0)
    800018ea:	00d667b3          	or	a5,a2,a3
    800018ee:	c395                	beqz	a5,80001912 <sbi_tlb_local_sfence_vma_asid+0x32>
    800018f0:	57fd                	li	a5,-1
    800018f2:	690c                	ld	a1,16(a0)
    800018f4:	02f68463          	beq	a3,a5,8000191c <sbi_tlb_local_sfence_vma_asid+0x3c>
    800018f8:	4781                	li	a5,0
    800018fa:	6505                	lui	a0,0x1
    800018fc:	ca81                	beqz	a3,8000190c <sbi_tlb_local_sfence_vma_asid+0x2c>
    800018fe:	00f60733          	add	a4,a2,a5
    80001902:	12b70073          	sfence.vma	a4,a1
    80001906:	97aa                	add	a5,a5,a0
    80001908:	fed7ebe3          	bltu	a5,a3,800018fe <sbi_tlb_local_sfence_vma_asid+0x1e>
    8000190c:	6422                	ld	s0,8(sp)
    8000190e:	0141                	addi	sp,sp,16
    80001910:	8082                	ret
    80001912:	12000073          	sfence.vma
    80001916:	6422                	ld	s0,8(sp)
    80001918:	0141                	addi	sp,sp,16
    8000191a:	8082                	ret
    8000191c:	12b00073          	sfence.vma	zero,a1
    80001920:	6422                	ld	s0,8(sp)
    80001922:	0141                	addi	sp,sp,16
    80001924:	8082                	ret

0000000080001926 <sbi_tlb_entry_process>:
    80001926:	7139                	addi	sp,sp,-64
    80001928:	fc06                	sd	ra,56(sp)
    8000192a:	f822                	sd	s0,48(sp)
    8000192c:	f04a                	sd	s2,32(sp)
    8000192e:	ec4e                	sd	s3,24(sp)
    80001930:	f426                	sd	s1,40(sp)
    80001932:	e852                	sd	s4,16(sp)
    80001934:	e456                	sd	s5,8(sp)
    80001936:	e05a                	sd	s6,0(sp)
    80001938:	0080                	addi	s0,sp,64
    8000193a:	711c                	ld	a5,32(a0)
    8000193c:	02850993          	addi	s3,a0,40 # 1028 <_fw_start-0x7fffefd8>
    80001940:	9782                	jalr	a5
    80001942:	08000593          	li	a1,128
    80001946:	854e                	mv	a0,s3
    80001948:	1ad010ef          	jal	ra,800032f4 <find_first_bit>
    8000194c:	0005091b          	sext.w	s2,a0
    80001950:	07f00793          	li	a5,127
    80001954:	0527e763          	bltu	a5,s2,800019a2 <sbi_tlb_entry_process+0x7c>
    80001958:	00012a97          	auipc	s5,0x12
    8000195c:	9b8a8a93          	addi	s5,s5,-1608 # 80013310 <hartid_to_scratch_table>
    80001960:	00011b17          	auipc	s6,0x11
    80001964:	6f8b0b13          	addi	s6,s6,1784 # 80013058 <tlb_sync_off>
    80001968:	07f00a13          	li	s4,127
    8000196c:	02091793          	slli	a5,s2,0x20
    80001970:	83f5                	srli	a5,a5,0x1d
    80001972:	97d6                	add	a5,a5,s5
    80001974:	6384                	ld	s1,0(a5)
    80001976:	c889                	beqz	s1,80001988 <sbi_tlb_entry_process+0x62>
    80001978:	000b3783          	ld	a5,0(s6)
    8000197c:	94be                	add	s1,s1,a5
    8000197e:	4585                	li	a1,1
    80001980:	8526                	mv	a0,s1
    80001982:	774010ef          	jal	ra,800030f6 <atomic_raw_xchg_ulong>
    80001986:	fd65                	bnez	a0,8000197e <sbi_tlb_entry_process+0x58>
    80001988:	0019061b          	addiw	a2,s2,1
    8000198c:	1602                	slli	a2,a2,0x20
    8000198e:	9201                	srli	a2,a2,0x20
    80001990:	08000593          	li	a1,128
    80001994:	854e                	mv	a0,s3
    80001996:	337010ef          	jal	ra,800034cc <find_next_bit>
    8000199a:	0005091b          	sext.w	s2,a0
    8000199e:	fd2a77e3          	bleu	s2,s4,8000196c <sbi_tlb_entry_process+0x46>
    800019a2:	70e2                	ld	ra,56(sp)
    800019a4:	7442                	ld	s0,48(sp)
    800019a6:	74a2                	ld	s1,40(sp)
    800019a8:	7902                	ld	s2,32(sp)
    800019aa:	69e2                	ld	s3,24(sp)
    800019ac:	6a42                	ld	s4,16(sp)
    800019ae:	6aa2                	ld	s5,8(sp)
    800019b0:	6b02                	ld	s6,0(sp)
    800019b2:	6121                	addi	sp,sp,64
    800019b4:	8082                	ret

00000000800019b6 <sbi_tlb_process>:
    800019b6:	711d                	addi	sp,sp,-96
    800019b8:	e8a2                	sd	s0,80(sp)
    800019ba:	ec86                	sd	ra,88(sp)
    800019bc:	e4a6                	sd	s1,72(sp)
    800019be:	1080                	addi	s0,sp,96
    800019c0:	00011797          	auipc	a5,0x11
    800019c4:	69078793          	addi	a5,a5,1680 # 80013050 <tlb_fifo_off>
    800019c8:	6384                	ld	s1,0(a5)
    800019ca:	94aa                	add	s1,s1,a0
    800019cc:	a029                	j	800019d6 <sbi_tlb_process+0x20>
    800019ce:	fa840513          	addi	a0,s0,-88
    800019d2:	f55ff0ef          	jal	ra,80001926 <sbi_tlb_entry_process>
    800019d6:	fa840593          	addi	a1,s0,-88
    800019da:	8526                	mv	a0,s1
    800019dc:	36b030ef          	jal	ra,80005546 <sbi_fifo_dequeue>
    800019e0:	d57d                	beqz	a0,800019ce <sbi_tlb_process+0x18>
    800019e2:	60e6                	ld	ra,88(sp)
    800019e4:	6446                	ld	s0,80(sp)
    800019e6:	64a6                	ld	s1,72(sp)
    800019e8:	6125                	addi	sp,sp,96
    800019ea:	8082                	ret

00000000800019ec <sbi_tlb_process_count.constprop.3>:
    800019ec:	711d                	addi	sp,sp,-96
    800019ee:	e8a2                	sd	s0,80(sp)
    800019f0:	ec86                	sd	ra,88(sp)
    800019f2:	e4a6                	sd	s1,72(sp)
    800019f4:	1080                	addi	s0,sp,96
    800019f6:	00011797          	auipc	a5,0x11
    800019fa:	65a78793          	addi	a5,a5,1626 # 80013050 <tlb_fifo_off>
    800019fe:	6384                	ld	s1,0(a5)
    80001a00:	fa840593          	addi	a1,s0,-88
    80001a04:	94aa                	add	s1,s1,a0
    80001a06:	8526                	mv	a0,s1
    80001a08:	33f030ef          	jal	ra,80005546 <sbi_fifo_dequeue>
    80001a0c:	ed19                	bnez	a0,80001a2a <sbi_tlb_process_count.constprop.3+0x3e>
    80001a0e:	fa840513          	addi	a0,s0,-88
    80001a12:	f15ff0ef          	jal	ra,80001926 <sbi_tlb_entry_process>
    80001a16:	fa840593          	addi	a1,s0,-88
    80001a1a:	8526                	mv	a0,s1
    80001a1c:	32b030ef          	jal	ra,80005546 <sbi_fifo_dequeue>
    80001a20:	e509                	bnez	a0,80001a2a <sbi_tlb_process_count.constprop.3+0x3e>
    80001a22:	fa840513          	addi	a0,s0,-88
    80001a26:	f01ff0ef          	jal	ra,80001926 <sbi_tlb_entry_process>
    80001a2a:	60e6                	ld	ra,88(sp)
    80001a2c:	6446                	ld	s0,80(sp)
    80001a2e:	64a6                	ld	s1,72(sp)
    80001a30:	6125                	addi	sp,sp,96
    80001a32:	8082                	ret

0000000080001a34 <sbi_tlb_update>:
    80001a34:	7139                	addi	sp,sp,-64
    80001a36:	f822                	sd	s0,48(sp)
    80001a38:	f426                	sd	s1,40(sp)
    80001a3a:	ec4e                	sd	s3,24(sp)
    80001a3c:	e456                	sd	s5,8(sp)
    80001a3e:	e05a                	sd	s6,0(sp)
    80001a40:	fc06                	sd	ra,56(sp)
    80001a42:	f04a                	sd	s2,32(sp)
    80001a44:	e852                	sd	s4,16(sp)
    80001a46:	0080                	addi	s0,sp,64
    80001a48:	8b2a                	mv	s6,a0
    80001a4a:	89ae                	mv	s3,a1
    80001a4c:	8ab2                	mv	s5,a2
    80001a4e:	84b6                	mv	s1,a3
    80001a50:	f1402973          	csrr	s2,mhartid
    80001a54:	00011797          	auipc	a5,0x11
    80001a58:	5ec78793          	addi	a5,a5,1516 # 80013040 <tlb_range_flush_limit>
    80001a5c:	6698                	ld	a4,8(a3)
    80001a5e:	639c                	ld	a5,0(a5)
    80001a60:	2901                	sext.w	s2,s2
    80001a62:	00e7f663          	bleu	a4,a5,80001a6e <sbi_tlb_update+0x3a>
    80001a66:	57fd                	li	a5,-1
    80001a68:	0006b023          	sd	zero,0(a3)
    80001a6c:	e69c                	sd	a5,8(a3)
    80001a6e:	07590363          	beq	s2,s5,80001ad4 <sbi_tlb_update+0xa0>
    80001a72:	00011797          	auipc	a5,0x11
    80001a76:	5de78793          	addi	a5,a5,1502 # 80013050 <tlb_fifo_off>
    80001a7a:	639c                	ld	a5,0(a5)
    80001a7c:	00000617          	auipc	a2,0x0
    80001a80:	09a60613          	addi	a2,a2,154 # 80001b16 <sbi_tlb_update_cb>
    80001a84:	85a6                	mv	a1,s1
    80001a86:	99be                	add	s3,s3,a5
    80001a88:	854e                	mv	a0,s3
    80001a8a:	1a1030ef          	jal	ra,8000542a <sbi_fifo_inplace_update>
    80001a8e:	4709                	li	a4,2
    80001a90:	4785                	li	a5,1
    80001a92:	0000fa17          	auipc	s4,0xf
    80001a96:	ae6a0a13          	addi	s4,s4,-1306 # 80010578 <CSWTCH.2+0x88>
    80001a9a:	02e50563          	beq	a0,a4,80001ac4 <sbi_tlb_update+0x90>
    80001a9e:	70e2                	ld	ra,56(sp)
    80001aa0:	7442                	ld	s0,48(sp)
    80001aa2:	74a2                	ld	s1,40(sp)
    80001aa4:	7902                	ld	s2,32(sp)
    80001aa6:	69e2                	ld	s3,24(sp)
    80001aa8:	6a42                	ld	s4,16(sp)
    80001aaa:	6aa2                	ld	s5,8(sp)
    80001aac:	6b02                	ld	s6,0(sp)
    80001aae:	853e                	mv	a0,a5
    80001ab0:	6121                	addi	sp,sp,64
    80001ab2:	8082                	ret
    80001ab4:	855a                	mv	a0,s6
    80001ab6:	f37ff0ef          	jal	ra,800019ec <sbi_tlb_process_count.constprop.3>
    80001aba:	8656                	mv	a2,s5
    80001abc:	85ca                	mv	a1,s2
    80001abe:	8552                	mv	a0,s4
    80001ac0:	3f2020ef          	jal	ra,80003eb2 <sbi_dprintf>
    80001ac4:	85a6                	mv	a1,s1
    80001ac6:	854e                	mv	a0,s3
    80001ac8:	1ff030ef          	jal	ra,800054c6 <sbi_fifo_enqueue>
    80001acc:	fe0544e3          	bltz	a0,80001ab4 <sbi_tlb_update+0x80>
    80001ad0:	4781                	li	a5,0
    80001ad2:	b7f1                	j	80001a9e <sbi_tlb_update+0x6a>
    80001ad4:	709c                	ld	a5,32(s1)
    80001ad6:	8526                	mv	a0,s1
    80001ad8:	9782                	jalr	a5
    80001ada:	57fd                	li	a5,-1
    80001adc:	b7c9                	j	80001a9e <sbi_tlb_update+0x6a>

0000000080001ade <sbi_tlb_sync>:
    80001ade:	1101                	addi	sp,sp,-32
    80001ae0:	e822                	sd	s0,16(sp)
    80001ae2:	e04a                	sd	s2,0(sp)
    80001ae4:	ec06                	sd	ra,24(sp)
    80001ae6:	e426                	sd	s1,8(sp)
    80001ae8:	1000                	addi	s0,sp,32
    80001aea:	00011797          	auipc	a5,0x11
    80001aee:	56e78793          	addi	a5,a5,1390 # 80013058 <tlb_sync_off>
    80001af2:	6384                	ld	s1,0(a5)
    80001af4:	892a                	mv	s2,a0
    80001af6:	94aa                	add	s1,s1,a0
    80001af8:	a021                	j	80001b00 <sbi_tlb_sync+0x22>
    80001afa:	854a                	mv	a0,s2
    80001afc:	ef1ff0ef          	jal	ra,800019ec <sbi_tlb_process_count.constprop.3>
    80001b00:	4581                	li	a1,0
    80001b02:	8526                	mv	a0,s1
    80001b04:	5f2010ef          	jal	ra,800030f6 <atomic_raw_xchg_ulong>
    80001b08:	d96d                	beqz	a0,80001afa <sbi_tlb_sync+0x1c>
    80001b0a:	60e2                	ld	ra,24(sp)
    80001b0c:	6442                	ld	s0,16(sp)
    80001b0e:	64a2                	ld	s1,8(sp)
    80001b10:	6902                	ld	s2,0(sp)
    80001b12:	6105                	addi	sp,sp,32
    80001b14:	8082                	ret

0000000080001b16 <sbi_tlb_update_cb>:
    80001b16:	c135                	beqz	a0,80001b7a <sbi_tlb_update_cb+0x64>
    80001b18:	c1ad                	beqz	a1,80001b7a <sbi_tlb_update_cb+0x64>
    80001b1a:	1141                	addi	sp,sp,-16
    80001b1c:	e022                	sd	s0,0(sp)
    80001b1e:	e406                	sd	ra,8(sp)
    80001b20:	0800                	addi	s0,sp,16
    80001b22:	711c                	ld	a5,32(a0)
    80001b24:	00000717          	auipc	a4,0x0
    80001b28:	dbc70713          	addi	a4,a4,-580 # 800018e0 <sbi_tlb_local_sfence_vma_asid>
    80001b2c:	862a                	mv	a2,a0
    80001b2e:	02e78063          	beq	a5,a4,80001b4e <sbi_tlb_update_cb+0x38>
    80001b32:	00000717          	auipc	a4,0x0
    80001b36:	d7470713          	addi	a4,a4,-652 # 800018a6 <sbi_tlb_local_sfence_vma>
    80001b3a:	4509                	li	a0,2
    80001b3c:	00e79563          	bne	a5,a4,80001b46 <sbi_tlb_update_cb+0x30>
    80001b40:	7198                	ld	a4,32(a1)
    80001b42:	00f70e63          	beq	a4,a5,80001b5e <sbi_tlb_update_cb+0x48>
    80001b46:	60a2                	ld	ra,8(sp)
    80001b48:	6402                	ld	s0,0(sp)
    80001b4a:	0141                	addi	sp,sp,16
    80001b4c:	8082                	ret
    80001b4e:	7198                	ld	a4,32(a1)
    80001b50:	4509                	li	a0,2
    80001b52:	fef71ae3          	bne	a4,a5,80001b46 <sbi_tlb_update_cb+0x30>
    80001b56:	6a18                	ld	a4,16(a2)
    80001b58:	699c                	ld	a5,16(a1)
    80001b5a:	fef716e3          	bne	a4,a5,80001b46 <sbi_tlb_update_cb+0x30>
    80001b5e:	6214                	ld	a3,0(a2)
    80001b60:	6618                	ld	a4,8(a2)
    80001b62:	0005b803          	ld	a6,0(a1) # 1000 <_fw_start-0x7ffff000>
    80001b66:	659c                	ld	a5,8(a1)
    80001b68:	9736                	add	a4,a4,a3
    80001b6a:	97c2                	add	a5,a5,a6
    80001b6c:	00d86963          	bltu	a6,a3,80001b7e <sbi_tlb_update_cb+0x68>
    80001b70:	02e7e463          	bltu	a5,a4,80001b98 <sbi_tlb_update_cb+0x82>
    80001b74:	fd0699e3          	bne	a3,a6,80001b46 <sbi_tlb_update_cb+0x30>
    80001b78:	a029                	j	80001b82 <sbi_tlb_update_cb+0x6c>
    80001b7a:	4509                	li	a0,2
    80001b7c:	8082                	ret
    80001b7e:	fce7e4e3          	bltu	a5,a4,80001b46 <sbi_tlb_update_cb+0x30>
    80001b82:	02858593          	addi	a1,a1,40
    80001b86:	852e                	mv	a0,a1
    80001b88:	08000693          	li	a3,128
    80001b8c:	02860613          	addi	a2,a2,40
    80001b90:	6f0010ef          	jal	ra,80003280 <__bitmap_or>
    80001b94:	4501                	li	a0,0
    80001b96:	bf45                	j	80001b46 <sbi_tlb_update_cb+0x30>
    80001b98:	e194                	sd	a3,0(a1)
    80001b9a:	6618                	ld	a4,8(a2)
    80001b9c:	02858793          	addi	a5,a1,40
    80001ba0:	853e                	mv	a0,a5
    80001ba2:	e598                	sd	a4,8(a1)
    80001ba4:	08000693          	li	a3,128
    80001ba8:	02860613          	addi	a2,a2,40
    80001bac:	85be                	mv	a1,a5
    80001bae:	6d2010ef          	jal	ra,80003280 <__bitmap_or>
    80001bb2:	4505                	li	a0,1
    80001bb4:	bf49                	j	80001b46 <sbi_tlb_update_cb+0x30>

0000000080001bb6 <sbi_tlb_local_hfence_vvma>:
    80001bb6:	7139                	addi	sp,sp,-64
    80001bb8:	f822                	sd	s0,48(sp)
    80001bba:	fc06                	sd	ra,56(sp)
    80001bbc:	f426                	sd	s1,40(sp)
    80001bbe:	f04a                	sd	s2,32(sp)
    80001bc0:	ec4e                	sd	s3,24(sp)
    80001bc2:	e852                	sd	s4,16(sp)
    80001bc4:	e456                	sd	s5,8(sp)
    80001bc6:	0080                	addi	s0,sp,64
    80001bc8:	01853983          	ld	s3,24(a0)
    80001bcc:	03fff7b7          	lui	a5,0x3fff
    80001bd0:	1782                	slli	a5,a5,0x20
    80001bd2:	19b2                	slli	s3,s3,0x2c
    80001bd4:	00053a03          	ld	s4,0(a0)
    80001bd8:	00853903          	ld	s2,8(a0)
    80001bdc:	00f9f9b3          	and	s3,s3,a5
    80001be0:	680999f3          	csrrw	s3,0x680,s3
    80001be4:	012a67b3          	or	a5,s4,s2
    80001be8:	cb95                	beqz	a5,80001c1c <sbi_tlb_local_hfence_vvma+0x66>
    80001bea:	57fd                	li	a5,-1
    80001bec:	02f90863          	beq	s2,a5,80001c1c <sbi_tlb_local_hfence_vvma+0x66>
    80001bf0:	4481                	li	s1,0
    80001bf2:	6a85                	lui	s5,0x1
    80001bf4:	00090963          	beqz	s2,80001c06 <sbi_tlb_local_hfence_vvma+0x50>
    80001bf8:	009a0533          	add	a0,s4,s1
    80001bfc:	94d6                	add	s1,s1,s5
    80001bfe:	493050ef          	jal	ra,80007890 <__sbi_hfence_vvma_va>
    80001c02:	ff24ebe3          	bltu	s1,s2,80001bf8 <sbi_tlb_local_hfence_vvma+0x42>
    80001c06:	68099073          	csrw	0x680,s3
    80001c0a:	70e2                	ld	ra,56(sp)
    80001c0c:	7442                	ld	s0,48(sp)
    80001c0e:	74a2                	ld	s1,40(sp)
    80001c10:	7902                	ld	s2,32(sp)
    80001c12:	69e2                	ld	s3,24(sp)
    80001c14:	6a42                	ld	s4,16(sp)
    80001c16:	6aa2                	ld	s5,8(sp)
    80001c18:	6121                	addi	sp,sp,64
    80001c1a:	8082                	ret
    80001c1c:	47d050ef          	jal	ra,80007898 <__sbi_hfence_vvma_all>
    80001c20:	b7dd                	j	80001c06 <sbi_tlb_local_hfence_vvma+0x50>

0000000080001c22 <sbi_tlb_local_hfence_gvma>:
    80001c22:	7179                	addi	sp,sp,-48
    80001c24:	f022                	sd	s0,32(sp)
    80001c26:	f406                	sd	ra,40(sp)
    80001c28:	ec26                	sd	s1,24(sp)
    80001c2a:	e84a                	sd	s2,16(sp)
    80001c2c:	e44e                	sd	s3,8(sp)
    80001c2e:	e052                	sd	s4,0(sp)
    80001c30:	1800                	addi	s0,sp,48
    80001c32:	00053983          	ld	s3,0(a0)
    80001c36:	00853903          	ld	s2,8(a0)
    80001c3a:	0129e7b3          	or	a5,s3,s2
    80001c3e:	c79d                	beqz	a5,80001c6c <sbi_tlb_local_hfence_gvma+0x4a>
    80001c40:	57fd                	li	a5,-1
    80001c42:	02f90563          	beq	s2,a5,80001c6c <sbi_tlb_local_hfence_gvma+0x4a>
    80001c46:	4481                	li	s1,0
    80001c48:	6a05                	lui	s4,0x1
    80001c4a:	00090963          	beqz	s2,80001c5c <sbi_tlb_local_hfence_gvma+0x3a>
    80001c4e:	00998533          	add	a0,s3,s1
    80001c52:	94d2                	add	s1,s1,s4
    80001c54:	41d050ef          	jal	ra,80007870 <__sbi_hfence_gvma_gpa>
    80001c58:	ff24ebe3          	bltu	s1,s2,80001c4e <sbi_tlb_local_hfence_gvma+0x2c>
    80001c5c:	70a2                	ld	ra,40(sp)
    80001c5e:	7402                	ld	s0,32(sp)
    80001c60:	64e2                	ld	s1,24(sp)
    80001c62:	6942                	ld	s2,16(sp)
    80001c64:	69a2                	ld	s3,8(sp)
    80001c66:	6a02                	ld	s4,0(sp)
    80001c68:	6145                	addi	sp,sp,48
    80001c6a:	8082                	ret
    80001c6c:	40d050ef          	jal	ra,80007878 <__sbi_hfence_gvma_all>
    80001c70:	70a2                	ld	ra,40(sp)
    80001c72:	7402                	ld	s0,32(sp)
    80001c74:	64e2                	ld	s1,24(sp)
    80001c76:	6942                	ld	s2,16(sp)
    80001c78:	69a2                	ld	s3,8(sp)
    80001c7a:	6a02                	ld	s4,0(sp)
    80001c7c:	6145                	addi	sp,sp,48
    80001c7e:	8082                	ret

0000000080001c80 <sbi_tlb_local_hfence_vvma_asid>:
    80001c80:	7139                	addi	sp,sp,-64
    80001c82:	f822                	sd	s0,48(sp)
    80001c84:	fc06                	sd	ra,56(sp)
    80001c86:	f426                	sd	s1,40(sp)
    80001c88:	f04a                	sd	s2,32(sp)
    80001c8a:	ec4e                	sd	s3,24(sp)
    80001c8c:	e852                	sd	s4,16(sp)
    80001c8e:	e456                	sd	s5,8(sp)
    80001c90:	e05a                	sd	s6,0(sp)
    80001c92:	0080                	addi	s0,sp,64
    80001c94:	01853983          	ld	s3,24(a0)
    80001c98:	03fff7b7          	lui	a5,0x3fff
    80001c9c:	1782                	slli	a5,a5,0x20
    80001c9e:	19b2                	slli	s3,s3,0x2c
    80001ca0:	00053a03          	ld	s4,0(a0)
    80001ca4:	00853903          	ld	s2,8(a0)
    80001ca8:	01053a83          	ld	s5,16(a0)
    80001cac:	00f9f9b3          	and	s3,s3,a5
    80001cb0:	680999f3          	csrrw	s3,0x680,s3
    80001cb4:	012a67b3          	or	a5,s4,s2
    80001cb8:	cf85                	beqz	a5,80001cf0 <sbi_tlb_local_hfence_vvma_asid+0x70>
    80001cba:	57fd                	li	a5,-1
    80001cbc:	02f90d63          	beq	s2,a5,80001cf6 <sbi_tlb_local_hfence_vvma_asid+0x76>
    80001cc0:	4481                	li	s1,0
    80001cc2:	6b05                	lui	s6,0x1
    80001cc4:	00090a63          	beqz	s2,80001cd8 <sbi_tlb_local_hfence_vvma_asid+0x58>
    80001cc8:	009a0533          	add	a0,s4,s1
    80001ccc:	85d6                	mv	a1,s5
    80001cce:	94da                	add	s1,s1,s6
    80001cd0:	3b1050ef          	jal	ra,80007880 <__sbi_hfence_vvma_asid_va>
    80001cd4:	ff24eae3          	bltu	s1,s2,80001cc8 <sbi_tlb_local_hfence_vvma_asid+0x48>
    80001cd8:	68099073          	csrw	0x680,s3
    80001cdc:	70e2                	ld	ra,56(sp)
    80001cde:	7442                	ld	s0,48(sp)
    80001ce0:	74a2                	ld	s1,40(sp)
    80001ce2:	7902                	ld	s2,32(sp)
    80001ce4:	69e2                	ld	s3,24(sp)
    80001ce6:	6a42                	ld	s4,16(sp)
    80001ce8:	6aa2                	ld	s5,8(sp)
    80001cea:	6b02                	ld	s6,0(sp)
    80001cec:	6121                	addi	sp,sp,64
    80001cee:	8082                	ret
    80001cf0:	3a9050ef          	jal	ra,80007898 <__sbi_hfence_vvma_all>
    80001cf4:	b7d5                	j	80001cd8 <sbi_tlb_local_hfence_vvma_asid+0x58>
    80001cf6:	8556                	mv	a0,s5
    80001cf8:	391050ef          	jal	ra,80007888 <__sbi_hfence_vvma_asid>
    80001cfc:	bff1                	j	80001cd8 <sbi_tlb_local_hfence_vvma_asid+0x58>

0000000080001cfe <sbi_tlb_local_hfence_gvma_vmid>:
    80001cfe:	7139                	addi	sp,sp,-64
    80001d00:	f822                	sd	s0,48(sp)
    80001d02:	fc06                	sd	ra,56(sp)
    80001d04:	f426                	sd	s1,40(sp)
    80001d06:	f04a                	sd	s2,32(sp)
    80001d08:	ec4e                	sd	s3,24(sp)
    80001d0a:	e852                	sd	s4,16(sp)
    80001d0c:	e456                	sd	s5,8(sp)
    80001d0e:	0080                	addi	s0,sp,64
    80001d10:	00053983          	ld	s3,0(a0)
    80001d14:	00853903          	ld	s2,8(a0)
    80001d18:	0129e7b3          	or	a5,s3,s2
    80001d1c:	cb9d                	beqz	a5,80001d52 <sbi_tlb_local_hfence_gvma_vmid+0x54>
    80001d1e:	57fd                	li	a5,-1
    80001d20:	01853a03          	ld	s4,24(a0)
    80001d24:	02f90a63          	beq	s2,a5,80001d58 <sbi_tlb_local_hfence_gvma_vmid+0x5a>
    80001d28:	4481                	li	s1,0
    80001d2a:	6a85                	lui	s5,0x1
    80001d2c:	00090a63          	beqz	s2,80001d40 <sbi_tlb_local_hfence_gvma_vmid+0x42>
    80001d30:	00998533          	add	a0,s3,s1
    80001d34:	85d2                	mv	a1,s4
    80001d36:	94d6                	add	s1,s1,s5
    80001d38:	329050ef          	jal	ra,80007860 <__sbi_hfence_gvma_vmid_gpa>
    80001d3c:	ff24eae3          	bltu	s1,s2,80001d30 <sbi_tlb_local_hfence_gvma_vmid+0x32>
    80001d40:	70e2                	ld	ra,56(sp)
    80001d42:	7442                	ld	s0,48(sp)
    80001d44:	74a2                	ld	s1,40(sp)
    80001d46:	7902                	ld	s2,32(sp)
    80001d48:	69e2                	ld	s3,24(sp)
    80001d4a:	6a42                	ld	s4,16(sp)
    80001d4c:	6aa2                	ld	s5,8(sp)
    80001d4e:	6121                	addi	sp,sp,64
    80001d50:	8082                	ret
    80001d52:	327050ef          	jal	ra,80007878 <__sbi_hfence_gvma_all>
    80001d56:	b7ed                	j	80001d40 <sbi_tlb_local_hfence_gvma_vmid+0x42>
    80001d58:	8552                	mv	a0,s4
    80001d5a:	30f050ef          	jal	ra,80007868 <__sbi_hfence_gvma_vmid>
    80001d5e:	b7cd                	j	80001d40 <sbi_tlb_local_hfence_gvma_vmid+0x42>

0000000080001d60 <sbi_tlb_local_fence_i>:
    80001d60:	1141                	addi	sp,sp,-16
    80001d62:	e422                	sd	s0,8(sp)
    80001d64:	0800                	addi	s0,sp,16
    80001d66:	0000100f          	fence.i
    80001d6a:	6422                	ld	s0,8(sp)
    80001d6c:	0141                	addi	sp,sp,16
    80001d6e:	8082                	ret

0000000080001d70 <sbi_tlb_request>:
    80001d70:	721c                	ld	a5,32(a2)
    80001d72:	c38d                	beqz	a5,80001d94 <sbi_tlb_request+0x24>
    80001d74:	1141                	addi	sp,sp,-16
    80001d76:	e022                	sd	s0,0(sp)
    80001d78:	e406                	sd	ra,8(sp)
    80001d7a:	0800                	addi	s0,sp,16
    80001d7c:	00010797          	auipc	a5,0x10
    80001d80:	29878793          	addi	a5,a5,664 # 80012014 <tlb_event>
    80001d84:	86b2                	mv	a3,a2
    80001d86:	4390                	lw	a2,0(a5)
    80001d88:	8f4ff0ef          	jal	ra,80000e7c <sbi_ipi_send_many>
    80001d8c:	60a2                	ld	ra,8(sp)
    80001d8e:	6402                	ld	s0,0(sp)
    80001d90:	0141                	addi	sp,sp,16
    80001d92:	8082                	ret
    80001d94:	5575                	li	a0,-3
    80001d96:	8082                	ret

0000000080001d98 <sbi_tlb_init>:
    80001d98:	7139                	addi	sp,sp,-64
    80001d9a:	f822                	sd	s0,48(sp)
    80001d9c:	f426                	sd	s1,40(sp)
    80001d9e:	fc06                	sd	ra,56(sp)
    80001da0:	f04a                	sd	s2,32(sp)
    80001da2:	ec4e                	sd	s3,24(sp)
    80001da4:	e852                	sd	s4,16(sp)
    80001da6:	e456                	sd	s5,8(sp)
    80001da8:	e05a                	sd	s6,0(sp)
    80001daa:	0080                	addi	s0,sp,64
    80001dac:	84aa                	mv	s1,a0
    80001dae:	e5ad                	bnez	a1,80001e18 <sbi_tlb_init+0x80>
    80001db0:	00011797          	auipc	a5,0x11
    80001db4:	2a878793          	addi	a5,a5,680 # 80013058 <tlb_sync_off>
    80001db8:	639c                	ld	a5,0(a5)
    80001dba:	12078163          	beqz	a5,80001edc <sbi_tlb_init+0x144>
    80001dbe:	00011717          	auipc	a4,0x11
    80001dc2:	29270713          	addi	a4,a4,658 # 80013050 <tlb_fifo_off>
    80001dc6:	6308                	ld	a0,0(a4)
    80001dc8:	10050a63          	beqz	a0,80001edc <sbi_tlb_init+0x144>
    80001dcc:	00011717          	auipc	a4,0x11
    80001dd0:	27c70713          	addi	a4,a4,636 # 80013048 <tlb_fifo_mem_off>
    80001dd4:	630c                	ld	a1,0(a4)
    80001dd6:	10058363          	beqz	a1,80001edc <sbi_tlb_init+0x144>
    80001dda:	00010717          	auipc	a4,0x10
    80001dde:	23a70713          	addi	a4,a4,570 # 80012014 <tlb_event>
    80001de2:	4314                	lw	a3,0(a4)
    80001de4:	03f00713          	li	a4,63
    80001de8:	0ed76d63          	bltu	a4,a3,80001ee2 <sbi_tlb_init+0x14a>
    80001dec:	97a6                	add	a5,a5,s1
    80001dee:	0007b023          	sd	zero,0(a5)
    80001df2:	03800693          	li	a3,56
    80001df6:	4621                	li	a2,8
    80001df8:	95a6                	add	a1,a1,s1
    80001dfa:	9526                	add	a0,a0,s1
    80001dfc:	50c030ef          	jal	ra,80005308 <sbi_fifo_init>
    80001e00:	4901                	li	s2,0
    80001e02:	70e2                	ld	ra,56(sp)
    80001e04:	7442                	ld	s0,48(sp)
    80001e06:	854a                	mv	a0,s2
    80001e08:	74a2                	ld	s1,40(sp)
    80001e0a:	7902                	ld	s2,32(sp)
    80001e0c:	69e2                	ld	s3,24(sp)
    80001e0e:	6a42                	ld	s4,16(sp)
    80001e10:	6aa2                	ld	s5,8(sp)
    80001e12:	6b02                	ld	s6,0(sp)
    80001e14:	6121                	addi	sp,sp,64
    80001e16:	8082                	ret
    80001e18:	0000e597          	auipc	a1,0xe
    80001e1c:	78058593          	addi	a1,a1,1920 # 80010598 <CSWTCH.2+0xa8>
    80001e20:	4521                	li	a0,8
    80001e22:	0304b983          	ld	s3,48(s1)
    80001e26:	cf2ff0ef          	jal	ra,80001318 <sbi_scratch_alloc_offset>
    80001e2a:	00011797          	auipc	a5,0x11
    80001e2e:	22a7b723          	sd	a0,558(a5) # 80013058 <tlb_sync_off>
    80001e32:	00011a17          	auipc	s4,0x11
    80001e36:	226a0a13          	addi	s4,s4,550 # 80013058 <tlb_sync_off>
    80001e3a:	c14d                	beqz	a0,80001edc <sbi_tlb_init+0x144>
    80001e3c:	0000e597          	auipc	a1,0xe
    80001e40:	76c58593          	addi	a1,a1,1900 # 800105a8 <CSWTCH.2+0xb8>
    80001e44:	4561                	li	a0,24
    80001e46:	cd2ff0ef          	jal	ra,80001318 <sbi_scratch_alloc_offset>
    80001e4a:	00011797          	auipc	a5,0x11
    80001e4e:	20a7b323          	sd	a0,518(a5) # 80013050 <tlb_fifo_off>
    80001e52:	00011a97          	auipc	s5,0x11
    80001e56:	1fea8a93          	addi	s5,s5,510 # 80013050 <tlb_fifo_off>
    80001e5a:	c559                	beqz	a0,80001ee8 <sbi_tlb_init+0x150>
    80001e5c:	0000e597          	auipc	a1,0xe
    80001e60:	75c58593          	addi	a1,a1,1884 # 800105b8 <CSWTCH.2+0xc8>
    80001e64:	1c000513          	li	a0,448
    80001e68:	cb0ff0ef          	jal	ra,80001318 <sbi_scratch_alloc_offset>
    80001e6c:	00011797          	auipc	a5,0x11
    80001e70:	1ca7be23          	sd	a0,476(a5) # 80013048 <tlb_fifo_mem_off>
    80001e74:	00011b17          	auipc	s6,0x11
    80001e78:	1d4b0b13          	addi	s6,s6,468 # 80013048 <tlb_fifo_mem_off>
    80001e7c:	cd2d                	beqz	a0,80001ef6 <sbi_tlb_init+0x15e>
    80001e7e:	00010517          	auipc	a0,0x10
    80001e82:	23250513          	addi	a0,a0,562 # 800120b0 <tlb_ops>
    80001e86:	8e2ff0ef          	jal	ra,80000f68 <sbi_ipi_event_create>
    80001e8a:	892a                	mv	s2,a0
    80001e8c:	02054b63          	bltz	a0,80001ec2 <sbi_tlb_init+0x12a>
    80001e90:	00010797          	auipc	a5,0x10
    80001e94:	18a7a223          	sw	a0,388(a5) # 80012014 <tlb_event>
    80001e98:	02098363          	beqz	s3,80001ebe <sbi_tlb_init+0x126>
    80001e9c:	0589b783          	ld	a5,88(s3)
    80001ea0:	6505                	lui	a0,0x1
    80001ea2:	67dc                	ld	a5,136(a5)
    80001ea4:	c391                	beqz	a5,80001ea8 <sbi_tlb_init+0x110>
    80001ea6:	9782                	jalr	a5
    80001ea8:	00011797          	auipc	a5,0x11
    80001eac:	18a7bc23          	sd	a0,408(a5) # 80013040 <tlb_range_flush_limit>
    80001eb0:	000a3783          	ld	a5,0(s4)
    80001eb4:	000ab503          	ld	a0,0(s5)
    80001eb8:	000b3583          	ld	a1,0(s6)
    80001ebc:	bf05                	j	80001dec <sbi_tlb_init+0x54>
    80001ebe:	6505                	lui	a0,0x1
    80001ec0:	b7e5                	j	80001ea8 <sbi_tlb_init+0x110>
    80001ec2:	000b3503          	ld	a0,0(s6)
    80001ec6:	d04ff0ef          	jal	ra,800013ca <sbi_scratch_free_offset>
    80001eca:	000ab503          	ld	a0,0(s5)
    80001ece:	cfcff0ef          	jal	ra,800013ca <sbi_scratch_free_offset>
    80001ed2:	000a3503          	ld	a0,0(s4)
    80001ed6:	cf4ff0ef          	jal	ra,800013ca <sbi_scratch_free_offset>
    80001eda:	b725                	j	80001e02 <sbi_tlb_init+0x6a>
    80001edc:	c1200913          	li	s2,-1006
    80001ee0:	b70d                	j	80001e02 <sbi_tlb_init+0x6a>
    80001ee2:	c1300913          	li	s2,-1005
    80001ee6:	bf31                	j	80001e02 <sbi_tlb_init+0x6a>
    80001ee8:	000a3503          	ld	a0,0(s4)
    80001eec:	c1200913          	li	s2,-1006
    80001ef0:	cdaff0ef          	jal	ra,800013ca <sbi_scratch_free_offset>
    80001ef4:	b739                	j	80001e02 <sbi_tlb_init+0x6a>
    80001ef6:	000ab503          	ld	a0,0(s5)
    80001efa:	c1200913          	li	s2,-1006
    80001efe:	cccff0ef          	jal	ra,800013ca <sbi_scratch_free_offset>
    80001f02:	000a3503          	ld	a0,0(s4)
    80001f06:	cc4ff0ef          	jal	ra,800013ca <sbi_scratch_free_offset>
    80001f0a:	bde5                	j	80001e02 <sbi_tlb_init+0x6a>

0000000080001f0c <sbi_trap_redirect>:
    80001f0c:	10853783          	ld	a5,264(a0) # 1108 <_fw_start-0x7fffeef8>
    80001f10:	00b7d713          	srli	a4,a5,0xb
    80001f14:	00277693          	andi	a3,a4,2
    80001f18:	1a069f63          	bnez	a3,800020d6 <sbi_trap_redirect+0x1ca>
    80001f1c:	7179                	addi	sp,sp,-48
    80001f1e:	f022                	sd	s0,32(sp)
    80001f20:	ec26                	sd	s1,24(sp)
    80001f22:	e84a                	sd	s2,16(sp)
    80001f24:	e44e                	sd	s3,8(sp)
    80001f26:	e052                	sd	s4,0(sp)
    80001f28:	f406                	sd	ra,40(sp)
    80001f2a:	1800                	addi	s0,sp,48
    80001f2c:	939d                	srli	a5,a5,0x27
    80001f2e:	84aa                	mv	s1,a0
    80001f30:	04800513          	li	a0,72
    80001f34:	0017fa13          	andi	s4,a5,1
    80001f38:	00377993          	andi	s3,a4,3
    80001f3c:	892e                	mv	s2,a1
    80001f3e:	163000ef          	jal	ra,800028a0 <misa_extension_imp>
    80001f42:	e149                	bnez	a0,80001fc4 <sbi_trap_redirect+0xb8>
    80001f44:	1084b703          	ld	a4,264(s1)
    80001f48:	57fd                	li	a5,-1
    80001f4a:	179e                	slli	a5,a5,0x27
    80001f4c:	17fd                	addi	a5,a5,-1
    80001f4e:	8ff9                	and	a5,a5,a4
    80001f50:	10f4b423          	sd	a5,264(s1)
    80001f54:	04800513          	li	a0,72
    80001f58:	149000ef          	jal	ra,800028a0 <misa_extension_imp>
    80001f5c:	16051a63          	bnez	a0,800020d0 <sbi_trap_redirect+0x1c4>
    80001f60:	01093783          	ld	a5,16(s2)
    80001f64:	14379073          	csrw	stval,a5
    80001f68:	00093783          	ld	a5,0(s2)
    80001f6c:	14179073          	csrw	sepc,a5
    80001f70:	00893783          	ld	a5,8(s2)
    80001f74:	14279073          	csrw	scause,a5
    80001f78:	10502773          	csrr	a4,stvec
    80001f7c:	1084b783          	ld	a5,264(s1)
    80001f80:	10e4b023          	sd	a4,256(s1)
    80001f84:	7779                	lui	a4,0xffffe
    80001f86:	6ff70713          	addi	a4,a4,1791 # ffffffffffffe6ff <_fw_end+0xffffffff7ffe76ff>
    80001f8a:	4685                	li	a3,1
    80001f8c:	8ff9                	and	a5,a5,a4
    80001f8e:	6705                	lui	a4,0x1
    80001f90:	12d98763          	beq	s3,a3,800020be <sbi_trap_redirect+0x1b2>
    80001f94:	80070713          	addi	a4,a4,-2048 # 800 <_fw_start-0x7ffff800>
    80001f98:	8fd9                	or	a5,a5,a4
    80001f9a:	10f4b423          	sd	a5,264(s1)
    80001f9e:	0027f713          	andi	a4,a5,2
    80001fa2:	fdf7f793          	andi	a5,a5,-33
    80001fa6:	c319                	beqz	a4,80001fac <sbi_trap_redirect+0xa0>
    80001fa8:	0207e793          	ori	a5,a5,32
    80001fac:	9bf5                	andi	a5,a5,-3
    80001fae:	10f4b423          	sd	a5,264(s1)
    80001fb2:	70a2                	ld	ra,40(sp)
    80001fb4:	7402                	ld	s0,32(sp)
    80001fb6:	64e2                	ld	s1,24(sp)
    80001fb8:	6942                	ld	s2,16(sp)
    80001fba:	69a2                	ld	s3,8(sp)
    80001fbc:	6a02                	ld	s4,0(sp)
    80001fbe:	4501                	li	a0,0
    80001fc0:	6145                	addi	sp,sp,48
    80001fc2:	8082                	ret
    80001fc4:	1084b783          	ld	a5,264(s1)
    80001fc8:	577d                	li	a4,-1
    80001fca:	171e                	slli	a4,a4,0x27
    80001fcc:	177d                	addi	a4,a4,-1
    80001fce:	8ff9                	and	a5,a5,a4
    80001fd0:	040a0363          	beqz	s4,80002016 <sbi_trap_redirect+0x10a>
    80001fd4:	00893703          	ld	a4,8(s2)
    80001fd8:	468d                	li	a3,3
    80001fda:	1751                	addi	a4,a4,-12
    80001fdc:	04e6f463          	bleu	a4,a3,80002024 <sbi_trap_redirect+0x118>
    80001fe0:	10f4b423          	sd	a5,264(s1)
    80001fe4:	04800513          	li	a0,72
    80001fe8:	0b9000ef          	jal	ra,800028a0 <misa_extension_imp>
    80001fec:	d935                	beqz	a0,80001f60 <sbi_trap_redirect+0x54>
    80001fee:	600027f3          	csrr	a5,0x600
    80001ff2:	4705                	li	a4,1
    80001ff4:	eff7f793          	andi	a5,a5,-257
    80001ff8:	0ce98963          	beq	s3,a4,800020ca <sbi_trap_redirect+0x1be>
    80001ffc:	0807e793          	ori	a5,a5,128
    80002000:	60079073          	csrw	0x600,a5
    80002004:	01893783          	ld	a5,24(s2)
    80002008:	64379073          	csrw	0x643,a5
    8000200c:	02093783          	ld	a5,32(s2)
    80002010:	64a79073          	csrw	0x64a,a5
    80002014:	b7b1                	j	80001f60 <sbi_trap_redirect+0x54>
    80002016:	10f4b423          	sd	a5,264(s1)
    8000201a:	04800513          	li	a0,72
    8000201e:	083000ef          	jal	ra,800028a0 <misa_extension_imp>
    80002022:	bf3d                	j	80001f60 <sbi_trap_redirect+0x54>
    80002024:	4a05                	li	s4,1
    80002026:	00ea1733          	sll	a4,s4,a4
    8000202a:	8b2d                	andi	a4,a4,11
    8000202c:	eb09                	bnez	a4,8000203e <sbi_trap_redirect+0x132>
    8000202e:	10f4b423          	sd	a5,264(s1)
    80002032:	04800513          	li	a0,72
    80002036:	06b000ef          	jal	ra,800028a0 <misa_extension_imp>
    8000203a:	d11d                	beqz	a0,80001f60 <sbi_trap_redirect+0x54>
    8000203c:	bf4d                	j	80001fee <sbi_trap_redirect+0xe2>
    8000203e:	027a1713          	slli	a4,s4,0x27
    80002042:	8fd9                	or	a5,a5,a4
    80002044:	10f4b423          	sd	a5,264(s1)
    80002048:	04800513          	li	a0,72
    8000204c:	055000ef          	jal	ra,800028a0 <misa_extension_imp>
    80002050:	01093783          	ld	a5,16(s2)
    80002054:	24379073          	csrw	hbadaddr,a5
    80002058:	00093783          	ld	a5,0(s2)
    8000205c:	24179073          	csrw	hepc,a5
    80002060:	00893783          	ld	a5,8(s2)
    80002064:	24279073          	csrw	hcause,a5
    80002068:	205026f3          	csrr	a3,htvec
    8000206c:	1084b783          	ld	a5,264(s1)
    80002070:	7779                	lui	a4,0xffffe
    80002072:	7ff70713          	addi	a4,a4,2047 # ffffffffffffe7ff <_fw_end+0xffffffff7ffe77ff>
    80002076:	8ff9                	and	a5,a5,a4
    80002078:	6705                	lui	a4,0x1
    8000207a:	80070713          	addi	a4,a4,-2048 # 800 <_fw_start-0x7ffff800>
    8000207e:	8fd9                	or	a5,a5,a4
    80002080:	10d4b023          	sd	a3,256(s1)
    80002084:	10f4b423          	sd	a5,264(s1)
    80002088:	200027f3          	csrr	a5,hstatus
    8000208c:	eff7f793          	andi	a5,a5,-257
    80002090:	01499463          	bne	s3,s4,80002098 <sbi_trap_redirect+0x18c>
    80002094:	1007e793          	ori	a5,a5,256
    80002098:	0027f713          	andi	a4,a5,2
    8000209c:	fdf7f793          	andi	a5,a5,-33
    800020a0:	c319                	beqz	a4,800020a6 <sbi_trap_redirect+0x19a>
    800020a2:	0207e793          	ori	a5,a5,32
    800020a6:	9bf5                	andi	a5,a5,-3
    800020a8:	20079073          	csrw	hstatus,a5
    800020ac:	70a2                	ld	ra,40(sp)
    800020ae:	7402                	ld	s0,32(sp)
    800020b0:	64e2                	ld	s1,24(sp)
    800020b2:	6942                	ld	s2,16(sp)
    800020b4:	69a2                	ld	s3,8(sp)
    800020b6:	6a02                	ld	s4,0(sp)
    800020b8:	4501                	li	a0,0
    800020ba:	6145                	addi	sp,sp,48
    800020bc:	8082                	ret
    800020be:	90070713          	addi	a4,a4,-1792
    800020c2:	8fd9                	or	a5,a5,a4
    800020c4:	10f4b423          	sd	a5,264(s1)
    800020c8:	bdd9                	j	80001f9e <sbi_trap_redirect+0x92>
    800020ca:	1007e793          	ori	a5,a5,256
    800020ce:	b73d                	j	80001ffc <sbi_trap_redirect+0xf0>
    800020d0:	f00a1fe3          	bnez	s4,80001fee <sbi_trap_redirect+0xe2>
    800020d4:	b571                	j	80001f60 <sbi_trap_redirect+0x54>
    800020d6:	5579                	li	a0,-2
    800020d8:	8082                	ret

00000000800020da <sbi_trap_handler>:
    800020da:	7159                	addi	sp,sp,-112
    800020dc:	f0a2                	sd	s0,96(sp)
    800020de:	e4ce                	sd	s3,72(sp)
    800020e0:	f486                	sd	ra,104(sp)
    800020e2:	eca6                	sd	s1,88(sp)
    800020e4:	e8ca                	sd	s2,80(sp)
    800020e6:	e0d2                	sd	s4,64(sp)
    800020e8:	fc56                	sd	s5,56(sp)
    800020ea:	f85a                	sd	s6,48(sp)
    800020ec:	1880                	addi	s0,sp,112
    800020ee:	89aa                	mv	s3,a0
    800020f0:	342024f3          	csrr	s1,mcause
    800020f4:	8926                	mv	s2,s1
    800020f6:	34302b73          	csrr	s6,mtval
    800020fa:	04800513          	li	a0,72
    800020fe:	7a2000ef          	jal	ra,800028a0 <misa_extension_imp>
    80002102:	c505                	beqz	a0,8000212a <sbi_trap_handler+0x50>
    80002104:	34b02a73          	csrr	s4,0x34b
    80002108:	34a02af3          	csrr	s5,0x34a
    8000210c:	0204c363          	bltz	s1,80002132 <sbi_trap_handler+0x58>
    80002110:	47ad                	li	a5,11
    80002112:	3e97e963          	bltu	a5,s1,80002504 <sbi_trap_handler+0x42a>
    80002116:	0000e697          	auipc	a3,0xe
    8000211a:	4ba68693          	addi	a3,a3,1210 # 800105d0 <CSWTCH.2+0xe0>
    8000211e:	00249713          	slli	a4,s1,0x2
    80002122:	9736                	add	a4,a4,a3
    80002124:	431c                	lw	a5,0(a4)
    80002126:	97b6                	add	a5,a5,a3
    80002128:	8782                	jr	a5
    8000212a:	4a81                	li	s5,0
    8000212c:	4a01                	li	s4,0
    8000212e:	fe04d1e3          	bgez	s1,80002110 <sbi_trap_handler+0x36>
    80002132:	597d                	li	s2,-1
    80002134:	00195913          	srli	s2,s2,0x1
    80002138:	0124f933          	and	s2,s1,s2
    8000213c:	478d                	li	a5,3
    8000213e:	3ef90b63          	beq	s2,a5,80002534 <sbi_trap_handler+0x45a>
    80002142:	479d                	li	a5,7
    80002144:	00f91f63          	bne	s2,a5,80002162 <sbi_trap_handler+0x88>
    80002148:	e52ff0ef          	jal	ra,8000179a <sbi_timer_process>
    8000214c:	70a6                	ld	ra,104(sp)
    8000214e:	7406                	ld	s0,96(sp)
    80002150:	854e                	mv	a0,s3
    80002152:	64e6                	ld	s1,88(sp)
    80002154:	6946                	ld	s2,80(sp)
    80002156:	69a6                	ld	s3,72(sp)
    80002158:	6a06                	ld	s4,64(sp)
    8000215a:	7ae2                	ld	s5,56(sp)
    8000215c:	7b42                	ld	s6,48(sp)
    8000215e:	6165                	addi	sp,sp,112
    80002160:	8082                	ret
    80002162:	0000e697          	auipc	a3,0xe
    80002166:	54668693          	addi	a3,a3,1350 # 800106a8 <__func__.1330+0xa8>
    8000216a:	5579                	li	a0,-2
    8000216c:	f14024f3          	csrr	s1,mhartid
    80002170:	2481                	sext.w	s1,s1
    80002172:	872a                	mv	a4,a0
    80002174:	0000e597          	auipc	a1,0xe
    80002178:	48c58593          	addi	a1,a1,1164 # 80010600 <__func__.1330>
    8000217c:	8626                	mv	a2,s1
    8000217e:	0000e517          	auipc	a0,0xe
    80002182:	54a50513          	addi	a0,a0,1354 # 800106c8 <__func__.1330+0xc8>
    80002186:	4d5010ef          	jal	ra,80003e5a <sbi_printf>
    8000218a:	875a                	mv	a4,s6
    8000218c:	86ca                	mv	a3,s2
    8000218e:	8626                	mv	a2,s1
    80002190:	0000e597          	auipc	a1,0xe
    80002194:	47058593          	addi	a1,a1,1136 # 80010600 <__func__.1330>
    80002198:	0000e517          	auipc	a0,0xe
    8000219c:	55050513          	addi	a0,a0,1360 # 800106e8 <__func__.1330+0xe8>
    800021a0:	4bb010ef          	jal	ra,80003e5a <sbi_printf>
    800021a4:	04800513          	li	a0,72
    800021a8:	6f8000ef          	jal	ra,800028a0 <misa_extension_imp>
    800021ac:	38051763          	bnez	a0,8000253a <sbi_trap_handler+0x460>
    800021b0:	1089b703          	ld	a4,264(s3)
    800021b4:	1009b683          	ld	a3,256(s3)
    800021b8:	8626                	mv	a2,s1
    800021ba:	0000e597          	auipc	a1,0xe
    800021be:	44658593          	addi	a1,a1,1094 # 80010600 <__func__.1330>
    800021c2:	0000e517          	auipc	a0,0xe
    800021c6:	58650513          	addi	a0,a0,1414 # 80010748 <__func__.1330+0x148>
    800021ca:	491010ef          	jal	ra,80003e5a <sbi_printf>
    800021ce:	0109b803          	ld	a6,16(s3)
    800021d2:	0089b703          	ld	a4,8(s3)
    800021d6:	0000e797          	auipc	a5,0xe
    800021da:	5a278793          	addi	a5,a5,1442 # 80010778 <__func__.1330+0x178>
    800021de:	0000e697          	auipc	a3,0xe
    800021e2:	5a268693          	addi	a3,a3,1442 # 80010780 <__func__.1330+0x180>
    800021e6:	8626                	mv	a2,s1
    800021e8:	0000e597          	auipc	a1,0xe
    800021ec:	41858593          	addi	a1,a1,1048 # 80010600 <__func__.1330>
    800021f0:	0000e517          	auipc	a0,0xe
    800021f4:	59850513          	addi	a0,a0,1432 # 80010788 <__func__.1330+0x188>
    800021f8:	463010ef          	jal	ra,80003e5a <sbi_printf>
    800021fc:	0209b803          	ld	a6,32(s3)
    80002200:	0189b703          	ld	a4,24(s3)
    80002204:	0000e797          	auipc	a5,0xe
    80002208:	5ac78793          	addi	a5,a5,1452 # 800107b0 <__func__.1330+0x1b0>
    8000220c:	0000e697          	auipc	a3,0xe
    80002210:	5ac68693          	addi	a3,a3,1452 # 800107b8 <__func__.1330+0x1b8>
    80002214:	8626                	mv	a2,s1
    80002216:	0000e597          	auipc	a1,0xe
    8000221a:	3ea58593          	addi	a1,a1,1002 # 80010600 <__func__.1330>
    8000221e:	0000e517          	auipc	a0,0xe
    80002222:	56a50513          	addi	a0,a0,1386 # 80010788 <__func__.1330+0x188>
    80002226:	435010ef          	jal	ra,80003e5a <sbi_printf>
    8000222a:	0489b803          	ld	a6,72(s3)
    8000222e:	0409b703          	ld	a4,64(s3)
    80002232:	0000e797          	auipc	a5,0xe
    80002236:	58e78793          	addi	a5,a5,1422 # 800107c0 <__func__.1330+0x1c0>
    8000223a:	0000e697          	auipc	a3,0xe
    8000223e:	58e68693          	addi	a3,a3,1422 # 800107c8 <__func__.1330+0x1c8>
    80002242:	8626                	mv	a2,s1
    80002244:	0000e597          	auipc	a1,0xe
    80002248:	3bc58593          	addi	a1,a1,956 # 80010600 <__func__.1330>
    8000224c:	0000e517          	auipc	a0,0xe
    80002250:	53c50513          	addi	a0,a0,1340 # 80010788 <__func__.1330+0x188>
    80002254:	407010ef          	jal	ra,80003e5a <sbi_printf>
    80002258:	0589b803          	ld	a6,88(s3)
    8000225c:	0509b703          	ld	a4,80(s3)
    80002260:	0000e797          	auipc	a5,0xe
    80002264:	57078793          	addi	a5,a5,1392 # 800107d0 <__func__.1330+0x1d0>
    80002268:	0000e697          	auipc	a3,0xe
    8000226c:	57068693          	addi	a3,a3,1392 # 800107d8 <__func__.1330+0x1d8>
    80002270:	8626                	mv	a2,s1
    80002272:	0000e597          	auipc	a1,0xe
    80002276:	38e58593          	addi	a1,a1,910 # 80010600 <__func__.1330>
    8000227a:	0000e517          	auipc	a0,0xe
    8000227e:	50e50513          	addi	a0,a0,1294 # 80010788 <__func__.1330+0x188>
    80002282:	3d9010ef          	jal	ra,80003e5a <sbi_printf>
    80002286:	0689b803          	ld	a6,104(s3)
    8000228a:	0609b703          	ld	a4,96(s3)
    8000228e:	0000e797          	auipc	a5,0xe
    80002292:	55278793          	addi	a5,a5,1362 # 800107e0 <__func__.1330+0x1e0>
    80002296:	0000e697          	auipc	a3,0xe
    8000229a:	55268693          	addi	a3,a3,1362 # 800107e8 <__func__.1330+0x1e8>
    8000229e:	8626                	mv	a2,s1
    800022a0:	0000e597          	auipc	a1,0xe
    800022a4:	36058593          	addi	a1,a1,864 # 80010600 <__func__.1330>
    800022a8:	0000e517          	auipc	a0,0xe
    800022ac:	4e050513          	addi	a0,a0,1248 # 80010788 <__func__.1330+0x188>
    800022b0:	3ab010ef          	jal	ra,80003e5a <sbi_printf>
    800022b4:	0789b803          	ld	a6,120(s3)
    800022b8:	0709b703          	ld	a4,112(s3)
    800022bc:	0000e797          	auipc	a5,0xe
    800022c0:	53478793          	addi	a5,a5,1332 # 800107f0 <__func__.1330+0x1f0>
    800022c4:	0000e697          	auipc	a3,0xe
    800022c8:	53468693          	addi	a3,a3,1332 # 800107f8 <__func__.1330+0x1f8>
    800022cc:	8626                	mv	a2,s1
    800022ce:	0000e597          	auipc	a1,0xe
    800022d2:	33258593          	addi	a1,a1,818 # 80010600 <__func__.1330>
    800022d6:	0000e517          	auipc	a0,0xe
    800022da:	4b250513          	addi	a0,a0,1202 # 80010788 <__func__.1330+0x188>
    800022de:	37d010ef          	jal	ra,80003e5a <sbi_printf>
    800022e2:	0889b803          	ld	a6,136(s3)
    800022e6:	0809b703          	ld	a4,128(s3)
    800022ea:	0000e797          	auipc	a5,0xe
    800022ee:	51678793          	addi	a5,a5,1302 # 80010800 <__func__.1330+0x200>
    800022f2:	0000e697          	auipc	a3,0xe
    800022f6:	51668693          	addi	a3,a3,1302 # 80010808 <__func__.1330+0x208>
    800022fa:	8626                	mv	a2,s1
    800022fc:	0000e597          	auipc	a1,0xe
    80002300:	30458593          	addi	a1,a1,772 # 80010600 <__func__.1330>
    80002304:	0000e517          	auipc	a0,0xe
    80002308:	48450513          	addi	a0,a0,1156 # 80010788 <__func__.1330+0x188>
    8000230c:	34f010ef          	jal	ra,80003e5a <sbi_printf>
    80002310:	0989b803          	ld	a6,152(s3)
    80002314:	0909b703          	ld	a4,144(s3)
    80002318:	0000e797          	auipc	a5,0xe
    8000231c:	4f878793          	addi	a5,a5,1272 # 80010810 <__func__.1330+0x210>
    80002320:	0000e697          	auipc	a3,0xe
    80002324:	4f868693          	addi	a3,a3,1272 # 80010818 <__func__.1330+0x218>
    80002328:	8626                	mv	a2,s1
    8000232a:	0000e597          	auipc	a1,0xe
    8000232e:	2d658593          	addi	a1,a1,726 # 80010600 <__func__.1330>
    80002332:	0000e517          	auipc	a0,0xe
    80002336:	45650513          	addi	a0,a0,1110 # 80010788 <__func__.1330+0x188>
    8000233a:	321010ef          	jal	ra,80003e5a <sbi_printf>
    8000233e:	0a89b803          	ld	a6,168(s3)
    80002342:	0a09b703          	ld	a4,160(s3)
    80002346:	0000e797          	auipc	a5,0xe
    8000234a:	4da78793          	addi	a5,a5,1242 # 80010820 <__func__.1330+0x220>
    8000234e:	0000e697          	auipc	a3,0xe
    80002352:	4da68693          	addi	a3,a3,1242 # 80010828 <__func__.1330+0x228>
    80002356:	8626                	mv	a2,s1
    80002358:	0000e597          	auipc	a1,0xe
    8000235c:	2a858593          	addi	a1,a1,680 # 80010600 <__func__.1330>
    80002360:	0000e517          	auipc	a0,0xe
    80002364:	42850513          	addi	a0,a0,1064 # 80010788 <__func__.1330+0x188>
    80002368:	2f3010ef          	jal	ra,80003e5a <sbi_printf>
    8000236c:	0b89b803          	ld	a6,184(s3)
    80002370:	0b09b703          	ld	a4,176(s3)
    80002374:	0000e797          	auipc	a5,0xe
    80002378:	4bc78793          	addi	a5,a5,1212 # 80010830 <__func__.1330+0x230>
    8000237c:	0000e697          	auipc	a3,0xe
    80002380:	4bc68693          	addi	a3,a3,1212 # 80010838 <__func__.1330+0x238>
    80002384:	8626                	mv	a2,s1
    80002386:	0000e597          	auipc	a1,0xe
    8000238a:	27a58593          	addi	a1,a1,634 # 80010600 <__func__.1330>
    8000238e:	0000e517          	auipc	a0,0xe
    80002392:	3fa50513          	addi	a0,a0,1018 # 80010788 <__func__.1330+0x188>
    80002396:	2c5010ef          	jal	ra,80003e5a <sbi_printf>
    8000239a:	0c89b803          	ld	a6,200(s3)
    8000239e:	0c09b703          	ld	a4,192(s3)
    800023a2:	0000e797          	auipc	a5,0xe
    800023a6:	49e78793          	addi	a5,a5,1182 # 80010840 <__func__.1330+0x240>
    800023aa:	0000e697          	auipc	a3,0xe
    800023ae:	49e68693          	addi	a3,a3,1182 # 80010848 <__func__.1330+0x248>
    800023b2:	8626                	mv	a2,s1
    800023b4:	0000e597          	auipc	a1,0xe
    800023b8:	24c58593          	addi	a1,a1,588 # 80010600 <__func__.1330>
    800023bc:	0000e517          	auipc	a0,0xe
    800023c0:	3cc50513          	addi	a0,a0,972 # 80010788 <__func__.1330+0x188>
    800023c4:	297010ef          	jal	ra,80003e5a <sbi_printf>
    800023c8:	0d89b803          	ld	a6,216(s3)
    800023cc:	0d09b703          	ld	a4,208(s3)
    800023d0:	0000e797          	auipc	a5,0xe
    800023d4:	48078793          	addi	a5,a5,1152 # 80010850 <__func__.1330+0x250>
    800023d8:	0000e697          	auipc	a3,0xe
    800023dc:	48068693          	addi	a3,a3,1152 # 80010858 <__func__.1330+0x258>
    800023e0:	8626                	mv	a2,s1
    800023e2:	0000e597          	auipc	a1,0xe
    800023e6:	21e58593          	addi	a1,a1,542 # 80010600 <__func__.1330>
    800023ea:	0000e517          	auipc	a0,0xe
    800023ee:	39e50513          	addi	a0,a0,926 # 80010788 <__func__.1330+0x188>
    800023f2:	269010ef          	jal	ra,80003e5a <sbi_printf>
    800023f6:	0309b803          	ld	a6,48(s3)
    800023fa:	0289b703          	ld	a4,40(s3)
    800023fe:	0000e797          	auipc	a5,0xe
    80002402:	46278793          	addi	a5,a5,1122 # 80010860 <__func__.1330+0x260>
    80002406:	0000e697          	auipc	a3,0xe
    8000240a:	46268693          	addi	a3,a3,1122 # 80010868 <__func__.1330+0x268>
    8000240e:	8626                	mv	a2,s1
    80002410:	0000e597          	auipc	a1,0xe
    80002414:	1f058593          	addi	a1,a1,496 # 80010600 <__func__.1330>
    80002418:	0000e517          	auipc	a0,0xe
    8000241c:	37050513          	addi	a0,a0,880 # 80010788 <__func__.1330+0x188>
    80002420:	23b010ef          	jal	ra,80003e5a <sbi_printf>
    80002424:	0e09b803          	ld	a6,224(s3)
    80002428:	0389b703          	ld	a4,56(s3)
    8000242c:	0000e797          	auipc	a5,0xe
    80002430:	44478793          	addi	a5,a5,1092 # 80010870 <__func__.1330+0x270>
    80002434:	0000e697          	auipc	a3,0xe
    80002438:	44468693          	addi	a3,a3,1092 # 80010878 <__func__.1330+0x278>
    8000243c:	8626                	mv	a2,s1
    8000243e:	0000e597          	auipc	a1,0xe
    80002442:	1c258593          	addi	a1,a1,450 # 80010600 <__func__.1330>
    80002446:	0000e517          	auipc	a0,0xe
    8000244a:	34250513          	addi	a0,a0,834 # 80010788 <__func__.1330+0x188>
    8000244e:	20d010ef          	jal	ra,80003e5a <sbi_printf>
    80002452:	0f09b803          	ld	a6,240(s3)
    80002456:	0e89b703          	ld	a4,232(s3)
    8000245a:	0000e797          	auipc	a5,0xe
    8000245e:	42678793          	addi	a5,a5,1062 # 80010880 <__func__.1330+0x280>
    80002462:	0000e697          	auipc	a3,0xe
    80002466:	42668693          	addi	a3,a3,1062 # 80010888 <__func__.1330+0x288>
    8000246a:	8626                	mv	a2,s1
    8000246c:	0000e597          	auipc	a1,0xe
    80002470:	19458593          	addi	a1,a1,404 # 80010600 <__func__.1330>
    80002474:	0000e517          	auipc	a0,0xe
    80002478:	31450513          	addi	a0,a0,788 # 80010788 <__func__.1330+0x188>
    8000247c:	1df010ef          	jal	ra,80003e5a <sbi_printf>
    80002480:	0f89b703          	ld	a4,248(s3)
    80002484:	0000e697          	auipc	a3,0xe
    80002488:	40c68693          	addi	a3,a3,1036 # 80010890 <__func__.1330+0x290>
    8000248c:	8626                	mv	a2,s1
    8000248e:	0000e597          	auipc	a1,0xe
    80002492:	17258593          	addi	a1,a1,370 # 80010600 <__func__.1330>
    80002496:	0000e517          	auipc	a0,0xe
    8000249a:	40250513          	addi	a0,a0,1026 # 80010898 <__func__.1330+0x298>
    8000249e:	1bd010ef          	jal	ra,80003e5a <sbi_printf>
    800024a2:	2a2050ef          	jal	ra,80007744 <sbi_hart_hang>
    800024a6:	854e                	mv	a0,s3
    800024a8:	6ca020ef          	jal	ra,80004b72 <sbi_ecall_handler>
    800024ac:	0000e697          	auipc	a3,0xe
    800024b0:	1e468693          	addi	a3,a3,484 # 80010690 <__func__.1330+0x90>
    800024b4:	c8050ce3          	beqz	a0,8000214c <sbi_trap_handler+0x72>
    800024b8:	b955                	j	8000216c <sbi_trap_handler+0x92>
    800024ba:	85ce                	mv	a1,s3
    800024bc:	855a                	mv	a0,s6
    800024be:	2c3050ef          	jal	ra,80007f80 <sbi_illegal_insn_handler>
    800024c2:	0000e697          	auipc	a3,0xe
    800024c6:	16668693          	addi	a3,a3,358 # 80010628 <__func__.1330+0x28>
    800024ca:	c80501e3          	beqz	a0,8000214c <sbi_trap_handler+0x72>
    800024ce:	b979                	j	8000216c <sbi_trap_handler+0x92>
    800024d0:	86ce                	mv	a3,s3
    800024d2:	8656                	mv	a2,s5
    800024d4:	85d2                	mv	a1,s4
    800024d6:	855a                	mv	a0,s6
    800024d8:	33f050ef          	jal	ra,80008016 <sbi_misaligned_load_handler>
    800024dc:	0000e697          	auipc	a3,0xe
    800024e0:	17468693          	addi	a3,a3,372 # 80010650 <__func__.1330+0x50>
    800024e4:	c60504e3          	beqz	a0,8000214c <sbi_trap_handler+0x72>
    800024e8:	b151                	j	8000216c <sbi_trap_handler+0x92>
    800024ea:	86ce                	mv	a3,s3
    800024ec:	8656                	mv	a2,s5
    800024ee:	85d2                	mv	a1,s4
    800024f0:	855a                	mv	a0,s6
    800024f2:	577050ef          	jal	ra,80008268 <sbi_misaligned_store_handler>
    800024f6:	0000e697          	auipc	a3,0xe
    800024fa:	17a68693          	addi	a3,a3,378 # 80010670 <__func__.1330+0x70>
    800024fe:	c40507e3          	beqz	a0,8000214c <sbi_trap_handler+0x72>
    80002502:	b1ad                	j	8000216c <sbi_trap_handler+0x92>
    80002504:	1009b783          	ld	a5,256(s3)
    80002508:	f9840593          	addi	a1,s0,-104
    8000250c:	854e                	mv	a0,s3
    8000250e:	f8f43c23          	sd	a5,-104(s0)
    80002512:	fa943023          	sd	s1,-96(s0)
    80002516:	fb643423          	sd	s6,-88(s0)
    8000251a:	fb443823          	sd	s4,-80(s0)
    8000251e:	fb543c23          	sd	s5,-72(s0)
    80002522:	9ebff0ef          	jal	ra,80001f0c <sbi_trap_redirect>
    80002526:	0000e697          	auipc	a3,0xe
    8000252a:	0ea68693          	addi	a3,a3,234 # 80010610 <__func__.1330+0x10>
    8000252e:	c0050fe3          	beqz	a0,8000214c <sbi_trap_handler+0x72>
    80002532:	b92d                	j	8000216c <sbi_trap_handler+0x92>
    80002534:	ac9fe0ef          	jal	ra,80000ffc <sbi_ipi_process>
    80002538:	b911                	j	8000214c <sbi_trap_handler+0x72>
    8000253a:	8756                	mv	a4,s5
    8000253c:	86d2                	mv	a3,s4
    8000253e:	8626                	mv	a2,s1
    80002540:	0000e597          	auipc	a1,0xe
    80002544:	0c058593          	addi	a1,a1,192 # 80010600 <__func__.1330>
    80002548:	0000e517          	auipc	a0,0xe
    8000254c:	1d050513          	addi	a0,a0,464 # 80010718 <__func__.1330+0x118>
    80002550:	10b010ef          	jal	ra,80003e5a <sbi_printf>
    80002554:	b9b1                	j	800021b0 <sbi_trap_handler+0xd6>

0000000080002556 <sbi_trap_exit>:
    80002556:	1141                	addi	sp,sp,-16
    80002558:	e022                	sd	s0,0(sp)
    8000255a:	e406                	sd	ra,8(sp)
    8000255c:	0800                	addi	s0,sp,16
    8000255e:	340027f3          	csrr	a5,mscratch
    80002562:	63bc                	ld	a5,64(a5)
    80002564:	9782                	jalr	a5

0000000080002566 <generic_early_exit>:
    80002566:	00011797          	auipc	a5,0x11
    8000256a:	b0278793          	addi	a5,a5,-1278 # 80013068 <generic_plat>
    8000256e:	639c                	ld	a5,0(a5)
    80002570:	c38d                	beqz	a5,80002592 <generic_early_exit+0x2c>
    80002572:	779c                	ld	a5,40(a5)
    80002574:	cf99                	beqz	a5,80002592 <generic_early_exit+0x2c>
    80002576:	1141                	addi	sp,sp,-16
    80002578:	e022                	sd	s0,0(sp)
    8000257a:	e406                	sd	ra,8(sp)
    8000257c:	0800                	addi	s0,sp,16
    8000257e:	00011717          	auipc	a4,0x11
    80002582:	ae270713          	addi	a4,a4,-1310 # 80013060 <generic_plat_match>
    80002586:	6308                	ld	a0,0(a4)
    80002588:	9782                	jalr	a5
    8000258a:	60a2                	ld	ra,8(sp)
    8000258c:	6402                	ld	s0,0(sp)
    8000258e:	0141                	addi	sp,sp,16
    80002590:	8082                	ret
    80002592:	8082                	ret

0000000080002594 <generic_final_exit>:
    80002594:	00011797          	auipc	a5,0x11
    80002598:	ad478793          	addi	a5,a5,-1324 # 80013068 <generic_plat>
    8000259c:	639c                	ld	a5,0(a5)
    8000259e:	c38d                	beqz	a5,800025c0 <generic_final_exit+0x2c>
    800025a0:	7b9c                	ld	a5,48(a5)
    800025a2:	cf99                	beqz	a5,800025c0 <generic_final_exit+0x2c>
    800025a4:	1141                	addi	sp,sp,-16
    800025a6:	e022                	sd	s0,0(sp)
    800025a8:	e406                	sd	ra,8(sp)
    800025aa:	0800                	addi	s0,sp,16
    800025ac:	00011717          	auipc	a4,0x11
    800025b0:	ab470713          	addi	a4,a4,-1356 # 80013060 <generic_plat_match>
    800025b4:	6308                	ld	a0,0(a4)
    800025b6:	9782                	jalr	a5
    800025b8:	60a2                	ld	ra,8(sp)
    800025ba:	6402                	ld	s0,0(sp)
    800025bc:	0141                	addi	sp,sp,16
    800025be:	8082                	ret
    800025c0:	8082                	ret

00000000800025c2 <generic_tlbr_flush_limit>:
    800025c2:	00011797          	auipc	a5,0x11
    800025c6:	aa678793          	addi	a5,a5,-1370 # 80013068 <generic_plat>
    800025ca:	639c                	ld	a5,0(a5)
    800025cc:	c39d                	beqz	a5,800025f2 <generic_tlbr_flush_limit+0x30>
    800025ce:	6b9c                	ld	a5,16(a5)
    800025d0:	6505                	lui	a0,0x1
    800025d2:	cf99                	beqz	a5,800025f0 <generic_tlbr_flush_limit+0x2e>
    800025d4:	1141                	addi	sp,sp,-16
    800025d6:	e022                	sd	s0,0(sp)
    800025d8:	e406                	sd	ra,8(sp)
    800025da:	0800                	addi	s0,sp,16
    800025dc:	00011717          	auipc	a4,0x11
    800025e0:	a8470713          	addi	a4,a4,-1404 # 80013060 <generic_plat_match>
    800025e4:	6308                	ld	a0,0(a4)
    800025e6:	9782                	jalr	a5
    800025e8:	60a2                	ld	ra,8(sp)
    800025ea:	6402                	ld	s0,0(sp)
    800025ec:	0141                	addi	sp,sp,16
    800025ee:	8082                	ret
    800025f0:	8082                	ret
    800025f2:	6505                	lui	a0,0x1
    800025f4:	8082                	ret

00000000800025f6 <generic_system_reset>:
    800025f6:	1141                	addi	sp,sp,-16
    800025f8:	e022                	sd	s0,0(sp)
    800025fa:	e406                	sd	ra,8(sp)
    800025fc:	0800                	addi	s0,sp,16
    800025fe:	00011797          	auipc	a5,0x11
    80002602:	a6a78793          	addi	a5,a5,-1430 # 80013068 <generic_plat>
    80002606:	639c                	ld	a5,0(a5)
    80002608:	872a                	mv	a4,a0
    8000260a:	86ae                	mv	a3,a1
    8000260c:	cf89                	beqz	a5,80002626 <generic_system_reset+0x30>
    8000260e:	63bc                	ld	a5,64(a5)
    80002610:	cb99                	beqz	a5,80002626 <generic_system_reset+0x30>
    80002612:	00011717          	auipc	a4,0x11
    80002616:	a4e70713          	addi	a4,a4,-1458 # 80013060 <generic_plat_match>
    8000261a:	6310                	ld	a2,0(a4)
    8000261c:	9782                	jalr	a5
    8000261e:	60a2                	ld	ra,8(sp)
    80002620:	6402                	ld	s0,0(sp)
    80002622:	0141                	addi	sp,sp,16
    80002624:	8082                	ret
    80002626:	85b6                	mv	a1,a3
    80002628:	853a                	mv	a0,a4
    8000262a:	4f9060ef          	jal	ra,80009322 <fdt_system_reset>
    8000262e:	60a2                	ld	ra,8(sp)
    80002630:	6402                	ld	s0,0(sp)
    80002632:	0141                	addi	sp,sp,16
    80002634:	8082                	ret

0000000080002636 <generic_system_reset_check>:
    80002636:	1141                	addi	sp,sp,-16
    80002638:	e022                	sd	s0,0(sp)
    8000263a:	e406                	sd	ra,8(sp)
    8000263c:	0800                	addi	s0,sp,16
    8000263e:	00011797          	auipc	a5,0x11
    80002642:	a2a78793          	addi	a5,a5,-1494 # 80013068 <generic_plat>
    80002646:	639c                	ld	a5,0(a5)
    80002648:	872a                	mv	a4,a0
    8000264a:	86ae                	mv	a3,a1
    8000264c:	cf89                	beqz	a5,80002666 <generic_system_reset_check+0x30>
    8000264e:	7f9c                	ld	a5,56(a5)
    80002650:	cb99                	beqz	a5,80002666 <generic_system_reset_check+0x30>
    80002652:	00011717          	auipc	a4,0x11
    80002656:	a0e70713          	addi	a4,a4,-1522 # 80013060 <generic_plat_match>
    8000265a:	6310                	ld	a2,0(a4)
    8000265c:	9782                	jalr	a5
    8000265e:	60a2                	ld	ra,8(sp)
    80002660:	6402                	ld	s0,0(sp)
    80002662:	0141                	addi	sp,sp,16
    80002664:	8082                	ret
    80002666:	85b6                	mv	a1,a3
    80002668:	853a                	mv	a0,a4
    8000266a:	48f060ef          	jal	ra,800092f8 <fdt_system_reset_check>
    8000266e:	60a2                	ld	ra,8(sp)
    80002670:	6402                	ld	s0,0(sp)
    80002672:	0141                	addi	sp,sp,16
    80002674:	8082                	ret

0000000080002676 <generic_domains_init>:
    80002676:	1141                	addi	sp,sp,-16
    80002678:	e022                	sd	s0,0(sp)
    8000267a:	e406                	sd	ra,8(sp)
    8000267c:	0800                	addi	s0,sp,16
    8000267e:	340027f3          	csrr	a5,mscratch
    80002682:	6b88                	ld	a0,16(a5)
    80002684:	09f090ef          	jal	ra,8000bf22 <fdt_domains_populate>
    80002688:	60a2                	ld	ra,8(sp)
    8000268a:	6402                	ld	s0,0(sp)
    8000268c:	0141                	addi	sp,sp,16
    8000268e:	8082                	ret

0000000080002690 <generic_early_init>:
    80002690:	1101                	addi	sp,sp,-32
    80002692:	e822                	sd	s0,16(sp)
    80002694:	e426                	sd	s1,8(sp)
    80002696:	ec06                	sd	ra,24(sp)
    80002698:	1000                	addi	s0,sp,32
    8000269a:	00011797          	auipc	a5,0x11
    8000269e:	9ce78793          	addi	a5,a5,-1586 # 80013068 <generic_plat>
    800026a2:	639c                	ld	a5,0(a5)
    800026a4:	84aa                	mv	s1,a0
    800026a6:	cb91                	beqz	a5,800026ba <generic_early_init+0x2a>
    800026a8:	6f9c                	ld	a5,24(a5)
    800026aa:	cb81                	beqz	a5,800026ba <generic_early_init+0x2a>
    800026ac:	00011717          	auipc	a4,0x11
    800026b0:	9b470713          	addi	a4,a4,-1612 # 80013060 <generic_plat_match>
    800026b4:	630c                	ld	a1,0(a4)
    800026b6:	9782                	jalr	a5
    800026b8:	e119                	bnez	a0,800026be <generic_early_init+0x2e>
    800026ba:	4501                	li	a0,0
    800026bc:	e491                	bnez	s1,800026c8 <generic_early_init+0x38>
    800026be:	60e2                	ld	ra,24(sp)
    800026c0:	6442                	ld	s0,16(sp)
    800026c2:	64a2                	ld	s1,8(sp)
    800026c4:	6105                	addi	sp,sp,32
    800026c6:	8082                	ret
    800026c8:	47f060ef          	jal	ra,80009346 <fdt_reset_init>
    800026cc:	60e2                	ld	ra,24(sp)
    800026ce:	6442                	ld	s0,16(sp)
    800026d0:	64a2                	ld	s1,8(sp)
    800026d2:	6105                	addi	sp,sp,32
    800026d4:	8082                	ret

00000000800026d6 <generic_final_init>:
    800026d6:	1101                	addi	sp,sp,-32
    800026d8:	e822                	sd	s0,16(sp)
    800026da:	e426                	sd	s1,8(sp)
    800026dc:	e04a                	sd	s2,0(sp)
    800026de:	ec06                	sd	ra,24(sp)
    800026e0:	1000                	addi	s0,sp,32
    800026e2:	00011497          	auipc	s1,0x11
    800026e6:	98648493          	addi	s1,s1,-1658 # 80013068 <generic_plat>
    800026ea:	609c                	ld	a5,0(s1)
    800026ec:	892a                	mv	s2,a0
    800026ee:	cb91                	beqz	a5,80002702 <generic_final_init+0x2c>
    800026f0:	739c                	ld	a5,32(a5)
    800026f2:	cb81                	beqz	a5,80002702 <generic_final_init+0x2c>
    800026f4:	00011717          	auipc	a4,0x11
    800026f8:	96c70713          	addi	a4,a4,-1684 # 80013060 <generic_plat_match>
    800026fc:	630c                	ld	a1,0(a4)
    800026fe:	9782                	jalr	a5
    80002700:	e501                	bnez	a0,80002708 <generic_final_init+0x32>
    80002702:	00091963          	bnez	s2,80002714 <generic_final_init+0x3e>
    80002706:	4501                	li	a0,0
    80002708:	60e2                	ld	ra,24(sp)
    8000270a:	6442                	ld	s0,16(sp)
    8000270c:	64a2                	ld	s1,8(sp)
    8000270e:	6902                	ld	s2,0(sp)
    80002710:	6105                	addi	sp,sp,32
    80002712:	8082                	ret
    80002714:	340027f3          	csrr	a5,mscratch
    80002718:	0107b903          	ld	s2,16(a5)
    8000271c:	854a                	mv	a0,s2
    8000271e:	4ca0a0ef          	jal	ra,8000cbe8 <fdt_cpu_fixup>
    80002722:	854a                	mv	a0,s2
    80002724:	2490a0ef          	jal	ra,8000d16c <fdt_fixups>
    80002728:	854a                	mv	a0,s2
    8000272a:	680090ef          	jal	ra,8000bdaa <fdt_domain_fixup>
    8000272e:	609c                	ld	a5,0(s1)
    80002730:	dbf9                	beqz	a5,80002706 <generic_final_init+0x30>
    80002732:	67bc                	ld	a5,72(a5)
    80002734:	dbe9                	beqz	a5,80002706 <generic_final_init+0x30>
    80002736:	00011717          	auipc	a4,0x11
    8000273a:	92a70713          	addi	a4,a4,-1750 # 80013060 <generic_plat_match>
    8000273e:	630c                	ld	a1,0(a4)
    80002740:	854a                	mv	a0,s2
    80002742:	9782                	jalr	a5
    80002744:	60e2                	ld	ra,24(sp)
    80002746:	6442                	ld	s0,16(sp)
    80002748:	64a2                	ld	s1,8(sp)
    8000274a:	6902                	ld	s2,0(sp)
    8000274c:	6105                	addi	sp,sp,32
    8000274e:	8082                	ret

0000000080002750 <fw_platform_init>:
    80002750:	715d                	addi	sp,sp,-80
    80002752:	e0a2                	sd	s0,64(sp)
    80002754:	fc26                	sd	s1,56(sp)
    80002756:	e486                	sd	ra,72(sp)
    80002758:	f84a                	sd	s2,48(sp)
    8000275a:	f44e                	sd	s3,40(sp)
    8000275c:	f052                	sd	s4,32(sp)
    8000275e:	ec56                	sd	s5,24(sp)
    80002760:	0880                	addi	s0,sp,80
    80002762:	84ae                	mv	s1,a1
    80002764:	852e                	mv	a0,a1
    80002766:	0000e597          	auipc	a1,0xe
    8000276a:	24258593          	addi	a1,a1,578 # 800109a8 <platform_ops+0xf0>
    8000276e:	08c080ef          	jal	ra,8000a7fa <fdt_path_offset>
    80002772:	10054063          	bltz	a0,80002872 <fw_platform_init+0x122>
    80002776:	0000e997          	auipc	s3,0xe
    8000277a:	24a98993          	addi	s3,s3,586 # 800109c0 <sifive_fu540>
    8000277e:	0009b603          	ld	a2,0(s3)
    80002782:	892a                	mv	s2,a0
    80002784:	c21d                	beqz	a2,800027aa <fw_platform_init+0x5a>
    80002786:	fb840693          	addi	a3,s0,-72
    8000278a:	55fd                	li	a1,-1
    8000278c:	8526                	mv	a0,s1
    8000278e:	0c5090ef          	jal	ra,8000c052 <fdt_find_match>
    80002792:	00054c63          	bltz	a0,800027aa <fw_platform_init+0x5a>
    80002796:	00011797          	auipc	a5,0x11
    8000279a:	8d37b923          	sd	s3,-1838(a5) # 80013068 <generic_plat>
    8000279e:	fb843783          	ld	a5,-72(s0)
    800027a2:	00011717          	auipc	a4,0x11
    800027a6:	8af73f23          	sd	a5,-1858(a4) # 80013060 <generic_plat_match>
    800027aa:	85ca                	mv	a1,s2
    800027ac:	fb840693          	addi	a3,s0,-72
    800027b0:	0000e617          	auipc	a2,0xe
    800027b4:	20060613          	addi	a2,a2,512 # 800109b0 <platform_ops+0xf8>
    800027b8:	8526                	mv	a0,s1
    800027ba:	57f070ef          	jal	ra,8000a538 <fdt_getprop>
    800027be:	85aa                	mv	a1,a0
    800027c0:	c909                	beqz	a0,800027d2 <fw_platform_init+0x82>
    800027c2:	04000613          	li	a2,64
    800027c6:	00010517          	auipc	a0,0x10
    800027ca:	92a50513          	addi	a0,a0,-1750 # 800120f0 <platform+0x8>
    800027ce:	cfdfe0ef          	jal	ra,800014ca <sbi_strncpy>
    800027d2:	00011797          	auipc	a5,0x11
    800027d6:	89678793          	addi	a5,a5,-1898 # 80013068 <generic_plat>
    800027da:	639c                	ld	a5,0(a5)
    800027dc:	cf89                	beqz	a5,800027f6 <fw_platform_init+0xa6>
    800027de:	679c                	ld	a5,8(a5)
    800027e0:	cb99                	beqz	a5,800027f6 <fw_platform_init+0xa6>
    800027e2:	00011717          	auipc	a4,0x11
    800027e6:	87e70713          	addi	a4,a4,-1922 # 80013060 <generic_plat_match>
    800027ea:	6308                	ld	a0,0(a4)
    800027ec:	9782                	jalr	a5
    800027ee:	00010797          	auipc	a5,0x10
    800027f2:	94a7b123          	sd	a0,-1726(a5) # 80012130 <platform+0x48>
    800027f6:	0000e597          	auipc	a1,0xe
    800027fa:	1c258593          	addi	a1,a1,450 # 800109b8 <platform_ops+0x100>
    800027fe:	8526                	mv	a0,s1
    80002800:	7fb070ef          	jal	ra,8000a7fa <fdt_path_offset>
    80002804:	85aa                	mv	a1,a0
    80002806:	06054663          	bltz	a0,80002872 <fw_platform_init+0x122>
    8000280a:	8526                	mv	a0,s1
    8000280c:	2b4070ef          	jal	ra,80009ac0 <fdt_first_subnode>
    80002810:	89aa                	mv	s3,a0
    80002812:	4901                	li	s2,0
    80002814:	04054163          	bltz	a0,80002856 <fw_platform_init+0x106>
    80002818:	07f00a93          	li	s5,127
    8000281c:	00011a17          	auipc	s4,0x11
    80002820:	ef4a0a13          	addi	s4,s4,-268 # 80013710 <generic_hart_index2id>
    80002824:	85ce                	mv	a1,s3
    80002826:	fb440613          	addi	a2,s0,-76
    8000282a:	8526                	mv	a0,s1
    8000282c:	31f090ef          	jal	ra,8000c34a <fdt_parse_hart_id>
    80002830:	02091793          	slli	a5,s2,0x20
    80002834:	9381                	srli	a5,a5,0x20
    80002836:	078a                	slli	a5,a5,0x2
    80002838:	85ce                	mv	a1,s3
    8000283a:	97d2                	add	a5,a5,s4
    8000283c:	e519                	bnez	a0,8000284a <fw_platform_init+0xfa>
    8000283e:	fb442703          	lw	a4,-76(s0)
    80002842:	00eae463          	bltu	s5,a4,8000284a <fw_platform_init+0xfa>
    80002846:	c398                	sw	a4,0(a5)
    80002848:	2905                	addiw	s2,s2,1
    8000284a:	8526                	mv	a0,s1
    8000284c:	2a2070ef          	jal	ra,80009aee <fdt_next_subnode>
    80002850:	89aa                	mv	s3,a0
    80002852:	fc0559e3          	bgez	a0,80002824 <fw_platform_init+0xd4>
    80002856:	60a6                	ld	ra,72(sp)
    80002858:	6406                	ld	s0,64(sp)
    8000285a:	00010797          	auipc	a5,0x10
    8000285e:	8d27af23          	sw	s2,-1826(a5) # 80012138 <platform+0x50>
    80002862:	8526                	mv	a0,s1
    80002864:	7942                	ld	s2,48(sp)
    80002866:	74e2                	ld	s1,56(sp)
    80002868:	79a2                	ld	s3,40(sp)
    8000286a:	7a02                	ld	s4,32(sp)
    8000286c:	6ae2                	ld	s5,24(sp)
    8000286e:	6161                	addi	sp,sp,80
    80002870:	8082                	ret
    80002872:	10500073          	wfi
    80002876:	10500073          	wfi
    8000287a:	bfe5                	j	80002872 <fw_platform_init+0x122>

000000008000287c <sifive_fu540_tlbr_flush_limit>:
    8000287c:	1141                	addi	sp,sp,-16
    8000287e:	e422                	sd	s0,8(sp)
    80002880:	0800                	addi	s0,sp,16
    80002882:	6422                	ld	s0,8(sp)
    80002884:	4501                	li	a0,0
    80002886:	0141                	addi	sp,sp,16
    80002888:	8082                	ret

000000008000288a <sifive_fu540_fdt_fixup>:
    8000288a:	1141                	addi	sp,sp,-16
    8000288c:	e022                	sd	s0,0(sp)
    8000288e:	e406                	sd	ra,8(sp)
    80002890:	0800                	addi	s0,sp,16
    80002892:	05d0a0ef          	jal	ra,8000d0ee <fdt_reserved_memory_nomap_fixup>
    80002896:	60a2                	ld	ra,8(sp)
    80002898:	6402                	ld	s0,0(sp)
    8000289a:	4501                	li	a0,0
    8000289c:	0141                	addi	sp,sp,16
    8000289e:	8082                	ret

00000000800028a0 <misa_extension_imp>:
    800028a0:	301027f3          	csrr	a5,misa
    800028a4:	c78d                	beqz	a5,800028ce <misa_extension_imp+0x2e>
    800028a6:	fbf5061b          	addiw	a2,a0,-65
    800028aa:	0ff67593          	andi	a1,a2,255
    800028ae:	46e5                	li	a3,25
    800028b0:	04b6f163          	bleu	a1,a3,800028f2 <misa_extension_imp+0x52>
    800028b4:	f9f5071b          	addiw	a4,a0,-97
    800028b8:	0ff77613          	andi	a2,a4,255
    800028bc:	02c6e063          	bltu	a3,a2,800028dc <misa_extension_imp+0x3c>
    800028c0:	4505                	li	a0,1
    800028c2:	00e5173b          	sllw	a4,a0,a4
    800028c6:	8ff9                	and	a5,a5,a4
    800028c8:	0007851b          	sext.w	a0,a5
    800028cc:	8082                	ret
    800028ce:	340027f3          	csrr	a5,mscratch
    800028d2:	7b9c                	ld	a5,48(a5)
    800028d4:	c781                	beqz	a5,800028dc <misa_extension_imp+0x3c>
    800028d6:	6fbc                	ld	a5,88(a5)
    800028d8:	739c                	ld	a5,32(a5)
    800028da:	e399                	bnez	a5,800028e0 <misa_extension_imp+0x40>
    800028dc:	4501                	li	a0,0
    800028de:	8082                	ret
    800028e0:	1141                	addi	sp,sp,-16
    800028e2:	e022                	sd	s0,0(sp)
    800028e4:	e406                	sd	ra,8(sp)
    800028e6:	0800                	addi	s0,sp,16
    800028e8:	9782                	jalr	a5
    800028ea:	60a2                	ld	ra,8(sp)
    800028ec:	6402                	ld	s0,0(sp)
    800028ee:	0141                	addi	sp,sp,16
    800028f0:	8082                	ret
    800028f2:	4505                	li	a0,1
    800028f4:	00c5153b          	sllw	a0,a0,a2
    800028f8:	8fe9                	and	a5,a5,a0
    800028fa:	0007851b          	sext.w	a0,a5
    800028fe:	8082                	ret

0000000080002900 <misa_xlen>:
    80002900:	301027f3          	csrr	a5,misa
    80002904:	cf91                	beqz	a5,80002920 <misa_xlen+0x20>
    80002906:	301022f3          	csrr	t0,misa
    8000290a:	0002a313          	slti	t1,t0,0
    8000290e:	0306                	slli	t1,t1,0x1
    80002910:	0286                	slli	t0,t0,0x1
    80002912:	0002a293          	slti	t0,t0,0
    80002916:	00628533          	add	a0,t0,t1
    8000291a:	c11d                	beqz	a0,80002940 <misa_xlen+0x40>
    8000291c:	2501                	sext.w	a0,a0
    8000291e:	8082                	ret
    80002920:	340027f3          	csrr	a5,mscratch
    80002924:	7b9c                	ld	a5,48(a5)
    80002926:	cf89                	beqz	a5,80002940 <misa_xlen+0x40>
    80002928:	6fbc                	ld	a5,88(a5)
    8000292a:	779c                	ld	a5,40(a5)
    8000292c:	cb91                	beqz	a5,80002940 <misa_xlen+0x40>
    8000292e:	1141                	addi	sp,sp,-16
    80002930:	e022                	sd	s0,0(sp)
    80002932:	e406                	sd	ra,8(sp)
    80002934:	0800                	addi	s0,sp,16
    80002936:	9782                	jalr	a5
    80002938:	60a2                	ld	ra,8(sp)
    8000293a:	6402                	ld	s0,0(sp)
    8000293c:	0141                	addi	sp,sp,16
    8000293e:	8082                	ret
    80002940:	557d                	li	a0,-1
    80002942:	8082                	ret

0000000080002944 <misa_string>:
    80002944:	711d                	addi	sp,sp,-96
    80002946:	e8a2                	sd	s0,80(sp)
    80002948:	ec86                	sd	ra,88(sp)
    8000294a:	1080                	addi	s0,sp,96
    8000294c:	e4a6                	sd	s1,72(sp)
    8000294e:	e0ca                	sd	s2,64(sp)
    80002950:	fc4e                	sd	s3,56(sp)
    80002952:	f852                	sd	s4,48(sp)
    80002954:	f456                	sd	s5,40(sp)
    80002956:	f05a                	sd	s6,32(sp)
    80002958:	0000e797          	auipc	a5,0xe
    8000295c:	3e078793          	addi	a5,a5,992 # 80010d38 <sifive_fu540_match+0x328>
    80002960:	0007b883          	ld	a7,0(a5)
    80002964:	0087b803          	ld	a6,8(a5)
    80002968:	6b94                	ld	a3,16(a5)
    8000296a:	0187d703          	lhu	a4,24(a5)
    8000296e:	01a7c783          	lbu	a5,26(a5)
    80002972:	fb143023          	sd	a7,-96(s0)
    80002976:	fb043423          	sd	a6,-88(s0)
    8000297a:	fad43823          	sd	a3,-80(s0)
    8000297e:	fae41c23          	sh	a4,-72(s0)
    80002982:	faf40d23          	sb	a5,-70(s0)
    80002986:	c58d                	beqz	a1,800029b0 <misa_string+0x6c>
    80002988:	4791                	li	a5,4
    8000298a:	02c7fd63          	bleu	a2,a5,800029c4 <misa_string+0x80>
    8000298e:	07200793          	li	a5,114
    80002992:	00f58023          	sb	a5,0(a1)
    80002996:	07600793          	li	a5,118
    8000299a:	00f580a3          	sb	a5,1(a1)
    8000299e:	4789                	li	a5,2
    800029a0:	0af50163          	beq	a0,a5,80002a42 <misa_string+0xfe>
    800029a4:	478d                	li	a5,3
    800029a6:	08f50063          	beq	a0,a5,80002a26 <misa_string+0xe2>
    800029aa:	4785                	li	a5,1
    800029ac:	06f50363          	beq	a0,a5,80002a12 <misa_string+0xce>
    800029b0:	60e6                	ld	ra,88(sp)
    800029b2:	6446                	ld	s0,80(sp)
    800029b4:	64a6                	ld	s1,72(sp)
    800029b6:	6906                	ld	s2,64(sp)
    800029b8:	79e2                	ld	s3,56(sp)
    800029ba:	7a42                	ld	s4,48(sp)
    800029bc:	7aa2                	ld	s5,40(sp)
    800029be:	7b02                	ld	s6,32(sp)
    800029c0:	6125                	addi	sp,sp,96
    800029c2:	8082                	ret
    800029c4:	4901                	li	s2,0
    800029c6:	fec975e3          	bleu	a2,s2,800029b0 <misa_string+0x6c>
    800029ca:	8ab2                	mv	s5,a2
    800029cc:	8a2e                	mv	s4,a1
    800029ce:	fa140493          	addi	s1,s0,-95
    800029d2:	fbb40b13          	addi	s6,s0,-69
    800029d6:	06900993          	li	s3,105
    800029da:	854e                	mv	a0,s3
    800029dc:	ec5ff0ef          	jal	ra,800028a0 <misa_extension_imp>
    800029e0:	02091793          	slli	a5,s2,0x20
    800029e4:	9381                	srli	a5,a5,0x20
    800029e6:	97d2                	add	a5,a5,s4
    800029e8:	c501                	beqz	a0,800029f0 <misa_string+0xac>
    800029ea:	01378023          	sb	s3,0(a5)
    800029ee:	2905                	addiw	s2,s2,1
    800029f0:	009b0863          	beq	s6,s1,80002a00 <misa_string+0xbc>
    800029f4:	fb597ee3          	bleu	s5,s2,800029b0 <misa_string+0x6c>
    800029f8:	0004c983          	lbu	s3,0(s1)
    800029fc:	0485                	addi	s1,s1,1
    800029fe:	bff1                	j	800029da <misa_string+0x96>
    80002a00:	fb5978e3          	bleu	s5,s2,800029b0 <misa_string+0x6c>
    80002a04:	1902                	slli	s2,s2,0x20
    80002a06:	02095913          	srli	s2,s2,0x20
    80002a0a:	9952                	add	s2,s2,s4
    80002a0c:	00090023          	sb	zero,0(s2)
    80002a10:	b745                	j	800029b0 <misa_string+0x6c>
    80002a12:	03300793          	li	a5,51
    80002a16:	00f58123          	sb	a5,2(a1)
    80002a1a:	03200793          	li	a5,50
    80002a1e:	00f581a3          	sb	a5,3(a1)
    80002a22:	4911                	li	s2,4
    80002a24:	b75d                	j	800029ca <misa_string+0x86>
    80002a26:	03100793          	li	a5,49
    80002a2a:	00f58123          	sb	a5,2(a1)
    80002a2e:	03200793          	li	a5,50
    80002a32:	00f581a3          	sb	a5,3(a1)
    80002a36:	03800793          	li	a5,56
    80002a3a:	00f58223          	sb	a5,4(a1)
    80002a3e:	4915                	li	s2,5
    80002a40:	b759                	j	800029c6 <misa_string+0x82>
    80002a42:	03600793          	li	a5,54
    80002a46:	00f58123          	sb	a5,2(a1)
    80002a4a:	03400793          	li	a5,52
    80002a4e:	00f581a3          	sb	a5,3(a1)
    80002a52:	4911                	li	s2,4
    80002a54:	bf9d                	j	800029ca <misa_string+0x86>

0000000080002a56 <csr_read_num>:
    80002a56:	1141                	addi	sp,sp,-16
    80002a58:	e422                	sd	s0,8(sp)
    80002a5a:	c605051b          	addiw	a0,a0,-928
    80002a5e:	0800                	addi	s0,sp,16
    80002a60:	0005071b          	sext.w	a4,a0
    80002a64:	04f00793          	li	a5,79
    80002a68:	1ee7ef63          	bltu	a5,a4,80002c66 <csr_read_num+0x210>
    80002a6c:	1502                	slli	a0,a0,0x20
    80002a6e:	9101                	srli	a0,a0,0x20
    80002a70:	0000e717          	auipc	a4,0xe
    80002a74:	04470713          	addi	a4,a4,68 # 80010ab4 <sifive_fu540_match+0xa4>
    80002a78:	050a                	slli	a0,a0,0x2
    80002a7a:	953a                	add	a0,a0,a4
    80002a7c:	411c                	lw	a5,0(a0)
    80002a7e:	97ba                	add	a5,a5,a4
    80002a80:	8782                	jr	a5
    80002a82:	3ee02573          	csrr	a0,0x3ee
    80002a86:	6422                	ld	s0,8(sp)
    80002a88:	0141                	addi	sp,sp,16
    80002a8a:	8082                	ret
    80002a8c:	3ed02573          	csrr	a0,0x3ed
    80002a90:	bfdd                	j	80002a86 <csr_read_num+0x30>
    80002a92:	3ec02573          	csrr	a0,0x3ec
    80002a96:	bfc5                	j	80002a86 <csr_read_num+0x30>
    80002a98:	3eb02573          	csrr	a0,0x3eb
    80002a9c:	b7ed                	j	80002a86 <csr_read_num+0x30>
    80002a9e:	3ea02573          	csrr	a0,0x3ea
    80002aa2:	b7d5                	j	80002a86 <csr_read_num+0x30>
    80002aa4:	3e902573          	csrr	a0,0x3e9
    80002aa8:	bff9                	j	80002a86 <csr_read_num+0x30>
    80002aaa:	3e802573          	csrr	a0,0x3e8
    80002aae:	bfe1                	j	80002a86 <csr_read_num+0x30>
    80002ab0:	3e702573          	csrr	a0,0x3e7
    80002ab4:	bfc9                	j	80002a86 <csr_read_num+0x30>
    80002ab6:	3e602573          	csrr	a0,0x3e6
    80002aba:	b7f1                	j	80002a86 <csr_read_num+0x30>
    80002abc:	3e502573          	csrr	a0,0x3e5
    80002ac0:	b7d9                	j	80002a86 <csr_read_num+0x30>
    80002ac2:	3e402573          	csrr	a0,0x3e4
    80002ac6:	b7c1                	j	80002a86 <csr_read_num+0x30>
    80002ac8:	3e302573          	csrr	a0,0x3e3
    80002acc:	bf6d                	j	80002a86 <csr_read_num+0x30>
    80002ace:	3e202573          	csrr	a0,0x3e2
    80002ad2:	bf55                	j	80002a86 <csr_read_num+0x30>
    80002ad4:	3e102573          	csrr	a0,0x3e1
    80002ad8:	b77d                	j	80002a86 <csr_read_num+0x30>
    80002ada:	3e002573          	csrr	a0,0x3e0
    80002ade:	b765                	j	80002a86 <csr_read_num+0x30>
    80002ae0:	3df02573          	csrr	a0,0x3df
    80002ae4:	b74d                	j	80002a86 <csr_read_num+0x30>
    80002ae6:	3de02573          	csrr	a0,0x3de
    80002aea:	bf71                	j	80002a86 <csr_read_num+0x30>
    80002aec:	3dd02573          	csrr	a0,0x3dd
    80002af0:	bf59                	j	80002a86 <csr_read_num+0x30>
    80002af2:	3dc02573          	csrr	a0,0x3dc
    80002af6:	bf41                	j	80002a86 <csr_read_num+0x30>
    80002af8:	3db02573          	csrr	a0,0x3db
    80002afc:	b769                	j	80002a86 <csr_read_num+0x30>
    80002afe:	3da02573          	csrr	a0,0x3da
    80002b02:	b751                	j	80002a86 <csr_read_num+0x30>
    80002b04:	3d902573          	csrr	a0,0x3d9
    80002b08:	bfbd                	j	80002a86 <csr_read_num+0x30>
    80002b0a:	3d802573          	csrr	a0,0x3d8
    80002b0e:	bfa5                	j	80002a86 <csr_read_num+0x30>
    80002b10:	3d702573          	csrr	a0,0x3d7
    80002b14:	bf8d                	j	80002a86 <csr_read_num+0x30>
    80002b16:	3d602573          	csrr	a0,0x3d6
    80002b1a:	b7b5                	j	80002a86 <csr_read_num+0x30>
    80002b1c:	3d502573          	csrr	a0,0x3d5
    80002b20:	b79d                	j	80002a86 <csr_read_num+0x30>
    80002b22:	3d402573          	csrr	a0,0x3d4
    80002b26:	b785                	j	80002a86 <csr_read_num+0x30>
    80002b28:	3d302573          	csrr	a0,0x3d3
    80002b2c:	bfa9                	j	80002a86 <csr_read_num+0x30>
    80002b2e:	3d202573          	csrr	a0,0x3d2
    80002b32:	bf91                	j	80002a86 <csr_read_num+0x30>
    80002b34:	3d102573          	csrr	a0,0x3d1
    80002b38:	b7b9                	j	80002a86 <csr_read_num+0x30>
    80002b3a:	3d002573          	csrr	a0,0x3d0
    80002b3e:	b7a1                	j	80002a86 <csr_read_num+0x30>
    80002b40:	3cf02573          	csrr	a0,0x3cf
    80002b44:	b789                	j	80002a86 <csr_read_num+0x30>
    80002b46:	3ce02573          	csrr	a0,0x3ce
    80002b4a:	bf35                	j	80002a86 <csr_read_num+0x30>
    80002b4c:	3cd02573          	csrr	a0,0x3cd
    80002b50:	bf1d                	j	80002a86 <csr_read_num+0x30>
    80002b52:	3cc02573          	csrr	a0,0x3cc
    80002b56:	bf05                	j	80002a86 <csr_read_num+0x30>
    80002b58:	3cb02573          	csrr	a0,0x3cb
    80002b5c:	b72d                	j	80002a86 <csr_read_num+0x30>
    80002b5e:	3ca02573          	csrr	a0,0x3ca
    80002b62:	b715                	j	80002a86 <csr_read_num+0x30>
    80002b64:	3c902573          	csrr	a0,0x3c9
    80002b68:	bf39                	j	80002a86 <csr_read_num+0x30>
    80002b6a:	3c802573          	csrr	a0,0x3c8
    80002b6e:	bf21                	j	80002a86 <csr_read_num+0x30>
    80002b70:	3c702573          	csrr	a0,0x3c7
    80002b74:	bf09                	j	80002a86 <csr_read_num+0x30>
    80002b76:	3c602573          	csrr	a0,0x3c6
    80002b7a:	b731                	j	80002a86 <csr_read_num+0x30>
    80002b7c:	3c502573          	csrr	a0,0x3c5
    80002b80:	b719                	j	80002a86 <csr_read_num+0x30>
    80002b82:	3c402573          	csrr	a0,0x3c4
    80002b86:	b701                	j	80002a86 <csr_read_num+0x30>
    80002b88:	3c302573          	csrr	a0,0x3c3
    80002b8c:	bded                	j	80002a86 <csr_read_num+0x30>
    80002b8e:	3c202573          	csrr	a0,0x3c2
    80002b92:	bdd5                	j	80002a86 <csr_read_num+0x30>
    80002b94:	3c102573          	csrr	a0,0x3c1
    80002b98:	b5fd                	j	80002a86 <csr_read_num+0x30>
    80002b9a:	3c002573          	csrr	a0,0x3c0
    80002b9e:	b5e5                	j	80002a86 <csr_read_num+0x30>
    80002ba0:	3bf02573          	csrr	a0,pmpaddr15
    80002ba4:	b5cd                	j	80002a86 <csr_read_num+0x30>
    80002ba6:	3be02573          	csrr	a0,pmpaddr14
    80002baa:	bdf1                	j	80002a86 <csr_read_num+0x30>
    80002bac:	3bd02573          	csrr	a0,pmpaddr13
    80002bb0:	bdd9                	j	80002a86 <csr_read_num+0x30>
    80002bb2:	3bc02573          	csrr	a0,pmpaddr12
    80002bb6:	bdc1                	j	80002a86 <csr_read_num+0x30>
    80002bb8:	3bb02573          	csrr	a0,pmpaddr11
    80002bbc:	b5e9                	j	80002a86 <csr_read_num+0x30>
    80002bbe:	3ba02573          	csrr	a0,pmpaddr10
    80002bc2:	b5d1                	j	80002a86 <csr_read_num+0x30>
    80002bc4:	3b902573          	csrr	a0,pmpaddr9
    80002bc8:	bd7d                	j	80002a86 <csr_read_num+0x30>
    80002bca:	3b802573          	csrr	a0,pmpaddr8
    80002bce:	bd65                	j	80002a86 <csr_read_num+0x30>
    80002bd0:	3b702573          	csrr	a0,pmpaddr7
    80002bd4:	bd4d                	j	80002a86 <csr_read_num+0x30>
    80002bd6:	3b602573          	csrr	a0,pmpaddr6
    80002bda:	b575                	j	80002a86 <csr_read_num+0x30>
    80002bdc:	3b502573          	csrr	a0,pmpaddr5
    80002be0:	b55d                	j	80002a86 <csr_read_num+0x30>
    80002be2:	3b402573          	csrr	a0,pmpaddr4
    80002be6:	b545                	j	80002a86 <csr_read_num+0x30>
    80002be8:	3b302573          	csrr	a0,pmpaddr3
    80002bec:	bd69                	j	80002a86 <csr_read_num+0x30>
    80002bee:	3b202573          	csrr	a0,pmpaddr2
    80002bf2:	bd51                	j	80002a86 <csr_read_num+0x30>
    80002bf4:	3b102573          	csrr	a0,pmpaddr1
    80002bf8:	b579                	j	80002a86 <csr_read_num+0x30>
    80002bfa:	3b002573          	csrr	a0,pmpaddr0
    80002bfe:	b561                	j	80002a86 <csr_read_num+0x30>
    80002c00:	3af02573          	csrr	a0,0x3af
    80002c04:	b549                	j	80002a86 <csr_read_num+0x30>
    80002c06:	3ae02573          	csrr	a0,0x3ae
    80002c0a:	bdb5                	j	80002a86 <csr_read_num+0x30>
    80002c0c:	3ad02573          	csrr	a0,0x3ad
    80002c10:	bd9d                	j	80002a86 <csr_read_num+0x30>
    80002c12:	3ac02573          	csrr	a0,0x3ac
    80002c16:	bd85                	j	80002a86 <csr_read_num+0x30>
    80002c18:	3ab02573          	csrr	a0,0x3ab
    80002c1c:	b5ad                	j	80002a86 <csr_read_num+0x30>
    80002c1e:	3aa02573          	csrr	a0,0x3aa
    80002c22:	b595                	j	80002a86 <csr_read_num+0x30>
    80002c24:	3a902573          	csrr	a0,0x3a9
    80002c28:	bdb9                	j	80002a86 <csr_read_num+0x30>
    80002c2a:	3a802573          	csrr	a0,0x3a8
    80002c2e:	bda1                	j	80002a86 <csr_read_num+0x30>
    80002c30:	3a702573          	csrr	a0,0x3a7
    80002c34:	bd89                	j	80002a86 <csr_read_num+0x30>
    80002c36:	3a602573          	csrr	a0,0x3a6
    80002c3a:	b5b1                	j	80002a86 <csr_read_num+0x30>
    80002c3c:	3a502573          	csrr	a0,0x3a5
    80002c40:	b599                	j	80002a86 <csr_read_num+0x30>
    80002c42:	3a402573          	csrr	a0,0x3a4
    80002c46:	b581                	j	80002a86 <csr_read_num+0x30>
    80002c48:	3a302573          	csrr	a0,pmpcfg3
    80002c4c:	bd2d                	j	80002a86 <csr_read_num+0x30>
    80002c4e:	3a202573          	csrr	a0,pmpcfg2
    80002c52:	bd15                	j	80002a86 <csr_read_num+0x30>
    80002c54:	3a102573          	csrr	a0,pmpcfg1
    80002c58:	b53d                	j	80002a86 <csr_read_num+0x30>
    80002c5a:	3a002573          	csrr	a0,pmpcfg0
    80002c5e:	b525                	j	80002a86 <csr_read_num+0x30>
    80002c60:	3ef02573          	csrr	a0,0x3ef
    80002c64:	b50d                	j	80002a86 <csr_read_num+0x30>
    80002c66:	4501                	li	a0,0
    80002c68:	bd39                	j	80002a86 <csr_read_num+0x30>

0000000080002c6a <csr_write_num>:
    80002c6a:	1141                	addi	sp,sp,-16
    80002c6c:	e422                	sd	s0,8(sp)
    80002c6e:	c605051b          	addiw	a0,a0,-928
    80002c72:	0800                	addi	s0,sp,16
    80002c74:	0005071b          	sext.w	a4,a0
    80002c78:	04f00793          	li	a5,79
    80002c7c:	00e7ef63          	bltu	a5,a4,80002c9a <csr_write_num+0x30>
    80002c80:	1502                	slli	a0,a0,0x20
    80002c82:	9101                	srli	a0,a0,0x20
    80002c84:	0000e717          	auipc	a4,0xe
    80002c88:	f7070713          	addi	a4,a4,-144 # 80010bf4 <sifive_fu540_match+0x1e4>
    80002c8c:	050a                	slli	a0,a0,0x2
    80002c8e:	953a                	add	a0,a0,a4
    80002c90:	411c                	lw	a5,0(a0)
    80002c92:	97ba                	add	a5,a5,a4
    80002c94:	8782                	jr	a5
    80002c96:	3ef59073          	csrw	0x3ef,a1
    80002c9a:	6422                	ld	s0,8(sp)
    80002c9c:	0141                	addi	sp,sp,16
    80002c9e:	8082                	ret
    80002ca0:	3ee59073          	csrw	0x3ee,a1
    80002ca4:	bfdd                	j	80002c9a <csr_write_num+0x30>
    80002ca6:	3ed59073          	csrw	0x3ed,a1
    80002caa:	bfc5                	j	80002c9a <csr_write_num+0x30>
    80002cac:	3ec59073          	csrw	0x3ec,a1
    80002cb0:	b7ed                	j	80002c9a <csr_write_num+0x30>
    80002cb2:	3eb59073          	csrw	0x3eb,a1
    80002cb6:	b7d5                	j	80002c9a <csr_write_num+0x30>
    80002cb8:	3ea59073          	csrw	0x3ea,a1
    80002cbc:	bff9                	j	80002c9a <csr_write_num+0x30>
    80002cbe:	3e959073          	csrw	0x3e9,a1
    80002cc2:	bfe1                	j	80002c9a <csr_write_num+0x30>
    80002cc4:	3e859073          	csrw	0x3e8,a1
    80002cc8:	bfc9                	j	80002c9a <csr_write_num+0x30>
    80002cca:	3e759073          	csrw	0x3e7,a1
    80002cce:	b7f1                	j	80002c9a <csr_write_num+0x30>
    80002cd0:	3e659073          	csrw	0x3e6,a1
    80002cd4:	b7d9                	j	80002c9a <csr_write_num+0x30>
    80002cd6:	3e559073          	csrw	0x3e5,a1
    80002cda:	b7c1                	j	80002c9a <csr_write_num+0x30>
    80002cdc:	3e459073          	csrw	0x3e4,a1
    80002ce0:	bf6d                	j	80002c9a <csr_write_num+0x30>
    80002ce2:	3e359073          	csrw	0x3e3,a1
    80002ce6:	bf55                	j	80002c9a <csr_write_num+0x30>
    80002ce8:	3e259073          	csrw	0x3e2,a1
    80002cec:	b77d                	j	80002c9a <csr_write_num+0x30>
    80002cee:	3e159073          	csrw	0x3e1,a1
    80002cf2:	b765                	j	80002c9a <csr_write_num+0x30>
    80002cf4:	3e059073          	csrw	0x3e0,a1
    80002cf8:	b74d                	j	80002c9a <csr_write_num+0x30>
    80002cfa:	3df59073          	csrw	0x3df,a1
    80002cfe:	bf71                	j	80002c9a <csr_write_num+0x30>
    80002d00:	3de59073          	csrw	0x3de,a1
    80002d04:	bf59                	j	80002c9a <csr_write_num+0x30>
    80002d06:	3dd59073          	csrw	0x3dd,a1
    80002d0a:	bf41                	j	80002c9a <csr_write_num+0x30>
    80002d0c:	3dc59073          	csrw	0x3dc,a1
    80002d10:	b769                	j	80002c9a <csr_write_num+0x30>
    80002d12:	3db59073          	csrw	0x3db,a1
    80002d16:	b751                	j	80002c9a <csr_write_num+0x30>
    80002d18:	3da59073          	csrw	0x3da,a1
    80002d1c:	bfbd                	j	80002c9a <csr_write_num+0x30>
    80002d1e:	3d959073          	csrw	0x3d9,a1
    80002d22:	bfa5                	j	80002c9a <csr_write_num+0x30>
    80002d24:	3d859073          	csrw	0x3d8,a1
    80002d28:	bf8d                	j	80002c9a <csr_write_num+0x30>
    80002d2a:	3d759073          	csrw	0x3d7,a1
    80002d2e:	b7b5                	j	80002c9a <csr_write_num+0x30>
    80002d30:	3d659073          	csrw	0x3d6,a1
    80002d34:	b79d                	j	80002c9a <csr_write_num+0x30>
    80002d36:	3d559073          	csrw	0x3d5,a1
    80002d3a:	b785                	j	80002c9a <csr_write_num+0x30>
    80002d3c:	3d459073          	csrw	0x3d4,a1
    80002d40:	bfa9                	j	80002c9a <csr_write_num+0x30>
    80002d42:	3d359073          	csrw	0x3d3,a1
    80002d46:	bf91                	j	80002c9a <csr_write_num+0x30>
    80002d48:	3d259073          	csrw	0x3d2,a1
    80002d4c:	b7b9                	j	80002c9a <csr_write_num+0x30>
    80002d4e:	3d159073          	csrw	0x3d1,a1
    80002d52:	b7a1                	j	80002c9a <csr_write_num+0x30>
    80002d54:	3d059073          	csrw	0x3d0,a1
    80002d58:	b789                	j	80002c9a <csr_write_num+0x30>
    80002d5a:	3cf59073          	csrw	0x3cf,a1
    80002d5e:	bf35                	j	80002c9a <csr_write_num+0x30>
    80002d60:	3ce59073          	csrw	0x3ce,a1
    80002d64:	bf1d                	j	80002c9a <csr_write_num+0x30>
    80002d66:	3cd59073          	csrw	0x3cd,a1
    80002d6a:	bf05                	j	80002c9a <csr_write_num+0x30>
    80002d6c:	3cc59073          	csrw	0x3cc,a1
    80002d70:	b72d                	j	80002c9a <csr_write_num+0x30>
    80002d72:	3cb59073          	csrw	0x3cb,a1
    80002d76:	b715                	j	80002c9a <csr_write_num+0x30>
    80002d78:	3ca59073          	csrw	0x3ca,a1
    80002d7c:	bf39                	j	80002c9a <csr_write_num+0x30>
    80002d7e:	3c959073          	csrw	0x3c9,a1
    80002d82:	bf21                	j	80002c9a <csr_write_num+0x30>
    80002d84:	3c859073          	csrw	0x3c8,a1
    80002d88:	bf09                	j	80002c9a <csr_write_num+0x30>
    80002d8a:	3c759073          	csrw	0x3c7,a1
    80002d8e:	b731                	j	80002c9a <csr_write_num+0x30>
    80002d90:	3c659073          	csrw	0x3c6,a1
    80002d94:	b719                	j	80002c9a <csr_write_num+0x30>
    80002d96:	3c559073          	csrw	0x3c5,a1
    80002d9a:	b701                	j	80002c9a <csr_write_num+0x30>
    80002d9c:	3c459073          	csrw	0x3c4,a1
    80002da0:	bded                	j	80002c9a <csr_write_num+0x30>
    80002da2:	3c359073          	csrw	0x3c3,a1
    80002da6:	bdd5                	j	80002c9a <csr_write_num+0x30>
    80002da8:	3c259073          	csrw	0x3c2,a1
    80002dac:	b5fd                	j	80002c9a <csr_write_num+0x30>
    80002dae:	3c159073          	csrw	0x3c1,a1
    80002db2:	b5e5                	j	80002c9a <csr_write_num+0x30>
    80002db4:	3c059073          	csrw	0x3c0,a1
    80002db8:	b5cd                	j	80002c9a <csr_write_num+0x30>
    80002dba:	3bf59073          	csrw	pmpaddr15,a1
    80002dbe:	bdf1                	j	80002c9a <csr_write_num+0x30>
    80002dc0:	3be59073          	csrw	pmpaddr14,a1
    80002dc4:	bdd9                	j	80002c9a <csr_write_num+0x30>
    80002dc6:	3bd59073          	csrw	pmpaddr13,a1
    80002dca:	bdc1                	j	80002c9a <csr_write_num+0x30>
    80002dcc:	3bc59073          	csrw	pmpaddr12,a1
    80002dd0:	b5e9                	j	80002c9a <csr_write_num+0x30>
    80002dd2:	3bb59073          	csrw	pmpaddr11,a1
    80002dd6:	b5d1                	j	80002c9a <csr_write_num+0x30>
    80002dd8:	3ba59073          	csrw	pmpaddr10,a1
    80002ddc:	bd7d                	j	80002c9a <csr_write_num+0x30>
    80002dde:	3b959073          	csrw	pmpaddr9,a1
    80002de2:	bd65                	j	80002c9a <csr_write_num+0x30>
    80002de4:	3b859073          	csrw	pmpaddr8,a1
    80002de8:	bd4d                	j	80002c9a <csr_write_num+0x30>
    80002dea:	3b759073          	csrw	pmpaddr7,a1
    80002dee:	b575                	j	80002c9a <csr_write_num+0x30>
    80002df0:	3b659073          	csrw	pmpaddr6,a1
    80002df4:	b55d                	j	80002c9a <csr_write_num+0x30>
    80002df6:	3b559073          	csrw	pmpaddr5,a1
    80002dfa:	b545                	j	80002c9a <csr_write_num+0x30>
    80002dfc:	3b459073          	csrw	pmpaddr4,a1
    80002e00:	bd69                	j	80002c9a <csr_write_num+0x30>
    80002e02:	3b359073          	csrw	pmpaddr3,a1
    80002e06:	bd51                	j	80002c9a <csr_write_num+0x30>
    80002e08:	3b259073          	csrw	pmpaddr2,a1
    80002e0c:	b579                	j	80002c9a <csr_write_num+0x30>
    80002e0e:	3b159073          	csrw	pmpaddr1,a1
    80002e12:	b561                	j	80002c9a <csr_write_num+0x30>
    80002e14:	3b059073          	csrw	pmpaddr0,a1
    80002e18:	b549                	j	80002c9a <csr_write_num+0x30>
    80002e1a:	3af59073          	csrw	0x3af,a1
    80002e1e:	bdb5                	j	80002c9a <csr_write_num+0x30>
    80002e20:	3ae59073          	csrw	0x3ae,a1
    80002e24:	bd9d                	j	80002c9a <csr_write_num+0x30>
    80002e26:	3ad59073          	csrw	0x3ad,a1
    80002e2a:	bd85                	j	80002c9a <csr_write_num+0x30>
    80002e2c:	3ac59073          	csrw	0x3ac,a1
    80002e30:	b5ad                	j	80002c9a <csr_write_num+0x30>
    80002e32:	3ab59073          	csrw	0x3ab,a1
    80002e36:	b595                	j	80002c9a <csr_write_num+0x30>
    80002e38:	3aa59073          	csrw	0x3aa,a1
    80002e3c:	bdb9                	j	80002c9a <csr_write_num+0x30>
    80002e3e:	3a959073          	csrw	0x3a9,a1
    80002e42:	bda1                	j	80002c9a <csr_write_num+0x30>
    80002e44:	3a859073          	csrw	0x3a8,a1
    80002e48:	bd89                	j	80002c9a <csr_write_num+0x30>
    80002e4a:	3a759073          	csrw	0x3a7,a1
    80002e4e:	b5b1                	j	80002c9a <csr_write_num+0x30>
    80002e50:	3a659073          	csrw	0x3a6,a1
    80002e54:	b599                	j	80002c9a <csr_write_num+0x30>
    80002e56:	3a559073          	csrw	0x3a5,a1
    80002e5a:	b581                	j	80002c9a <csr_write_num+0x30>
    80002e5c:	3a459073          	csrw	0x3a4,a1
    80002e60:	bd2d                	j	80002c9a <csr_write_num+0x30>
    80002e62:	3a359073          	csrw	pmpcfg3,a1
    80002e66:	bd15                	j	80002c9a <csr_write_num+0x30>
    80002e68:	3a259073          	csrw	pmpcfg2,a1
    80002e6c:	b53d                	j	80002c9a <csr_write_num+0x30>
    80002e6e:	3a159073          	csrw	pmpcfg1,a1
    80002e72:	b525                	j	80002c9a <csr_write_num+0x30>
    80002e74:	3a059073          	csrw	pmpcfg0,a1
    80002e78:	b50d                	j	80002c9a <csr_write_num+0x30>

0000000080002e7a <pmp_set>:
    80002e7a:	03f00793          	li	a5,63
    80002e7e:	0ca7ea63          	bltu	a5,a0,80002f52 <pmp_set+0xd8>
    80002e82:	ffe68793          	addi	a5,a3,-2
    80002e86:	03e00713          	li	a4,62
    80002e8a:	0cf76463          	bltu	a4,a5,80002f52 <pmp_set+0xd8>
    80002e8e:	715d                	addi	sp,sp,-80
    80002e90:	f052                	sd	s4,32(sp)
    80002e92:	00255a1b          	srliw	s4,a0,0x2
    80002e96:	e0a2                	sd	s0,64(sp)
    80002e98:	fc26                	sd	s1,56(sp)
    80002e9a:	f84a                	sd	s2,48(sp)
    80002e9c:	f44e                	sd	s3,40(sp)
    80002e9e:	ec56                	sd	s5,24(sp)
    80002ea0:	e85a                	sd	s6,16(sp)
    80002ea2:	e45e                	sd	s7,8(sp)
    80002ea4:	0035149b          	slliw	s1,a0,0x3
    80002ea8:	e486                	sd	ra,72(sp)
    80002eaa:	0880                	addi	s0,sp,80
    80002eac:	3a0a0a1b          	addiw	s4,s4,928
    80002eb0:	ffea7a13          	andi	s4,s4,-2
    80002eb4:	0384f493          	andi	s1,s1,56
    80002eb8:	3b050a9b          	addiw	s5,a0,944
    80002ebc:	0ff00513          	li	a0,255
    80002ec0:	4789                	li	a5,2
    80002ec2:	8b36                	mv	s6,a3
    80002ec4:	89b2                	mv	s3,a2
    80002ec6:	892e                	mv	s2,a1
    80002ec8:	2a01                	sext.w	s4,s4
    80002eca:	00951bb3          	sll	s7,a0,s1
    80002ece:	06f68463          	beq	a3,a5,80002f36 <pmp_set+0xbc>
    80002ed2:	8552                	mv	a0,s4
    80002ed4:	b83ff0ef          	jal	ra,80002a56 <csr_read_num>
    80002ed8:	01896593          	ori	a1,s2,24
    80002edc:	009594b3          	sll	s1,a1,s1
    80002ee0:	8ca9                	xor	s1,s1,a0
    80002ee2:	0174f4b3          	and	s1,s1,s7
    80002ee6:	04000793          	li	a5,64
    80002eea:	8ca9                	xor	s1,s1,a0
    80002eec:	55fd                	li	a1,-1
    80002eee:	02fb0163          	beq	s6,a5,80002f10 <pmp_set+0x96>
    80002ef2:	4585                	li	a1,1
    80002ef4:	3b79                	addiw	s6,s6,-2
    80002ef6:	01659b33          	sll	s6,a1,s6
    80002efa:	416005b3          	neg	a1,s6
    80002efe:	0029d993          	srli	s3,s3,0x2
    80002f02:	1b7d                	addi	s6,s6,-1
    80002f04:	0135f9b3          	and	s3,a1,s3
    80002f08:	001b5593          	srli	a1,s6,0x1
    80002f0c:	0135e5b3          	or	a1,a1,s3
    80002f10:	8556                	mv	a0,s5
    80002f12:	d59ff0ef          	jal	ra,80002c6a <csr_write_num>
    80002f16:	8552                	mv	a0,s4
    80002f18:	85a6                	mv	a1,s1
    80002f1a:	d51ff0ef          	jal	ra,80002c6a <csr_write_num>
    80002f1e:	60a6                	ld	ra,72(sp)
    80002f20:	6406                	ld	s0,64(sp)
    80002f22:	74e2                	ld	s1,56(sp)
    80002f24:	7942                	ld	s2,48(sp)
    80002f26:	79a2                	ld	s3,40(sp)
    80002f28:	7a02                	ld	s4,32(sp)
    80002f2a:	6ae2                	ld	s5,24(sp)
    80002f2c:	6b42                	ld	s6,16(sp)
    80002f2e:	6ba2                	ld	s7,8(sp)
    80002f30:	4501                	li	a0,0
    80002f32:	6161                	addi	sp,sp,80
    80002f34:	8082                	ret
    80002f36:	8552                	mv	a0,s4
    80002f38:	b1fff0ef          	jal	ra,80002a56 <csr_read_num>
    80002f3c:	01096593          	ori	a1,s2,16
    80002f40:	009594b3          	sll	s1,a1,s1
    80002f44:	8ca9                	xor	s1,s1,a0
    80002f46:	0174f4b3          	and	s1,s1,s7
    80002f4a:	8ca9                	xor	s1,s1,a0
    80002f4c:	0029d593          	srli	a1,s3,0x2
    80002f50:	b7c1                	j	80002f10 <pmp_set+0x96>
    80002f52:	5575                	li	a0,-3
    80002f54:	8082                	ret

0000000080002f56 <pmp_get>:
    80002f56:	03f00793          	li	a5,63
    80002f5a:	0ca7e963          	bltu	a5,a0,8000302c <pmp_get+0xd6>
    80002f5e:	c5f9                	beqz	a1,8000302c <pmp_get+0xd6>
    80002f60:	c671                	beqz	a2,8000302c <pmp_get+0xd6>
    80002f62:	c6e9                	beqz	a3,8000302c <pmp_get+0xd6>
    80002f64:	7139                	addi	sp,sp,-64
    80002f66:	f822                	sd	s0,48(sp)
    80002f68:	f426                	sd	s1,40(sp)
    80002f6a:	f04a                	sd	s2,32(sp)
    80002f6c:	ec4e                	sd	s3,24(sp)
    80002f6e:	e852                	sd	s4,16(sp)
    80002f70:	e456                	sd	s5,8(sp)
    80002f72:	e05a                	sd	s6,0(sp)
    80002f74:	fc06                	sd	ra,56(sp)
    80002f76:	0080                	addi	s0,sp,64
    80002f78:	87aa                	mv	a5,a0
    80002f7a:	0025551b          	srliw	a0,a0,0x2
    80002f7e:	0006b023          	sd	zero,0(a3)
    80002f82:	3a05051b          	addiw	a0,a0,928
    80002f86:	0037991b          	slliw	s2,a5,0x3
    80002f8a:	00063023          	sd	zero,0(a2)
    80002f8e:	9979                	andi	a0,a0,-2
    80002f90:	03897b13          	andi	s6,s2,56
    80002f94:	0005b023          	sd	zero,0(a1)
    80002f98:	2501                	sext.w	a0,a0
    80002f9a:	0ff00913          	li	s2,255
    80002f9e:	3b07849b          	addiw	s1,a5,944
    80002fa2:	8ab6                	mv	s5,a3
    80002fa4:	8a32                	mv	s4,a2
    80002fa6:	89ae                	mv	s3,a1
    80002fa8:	01691933          	sll	s2,s2,s6
    80002fac:	aabff0ef          	jal	ra,80002a56 <csr_read_num>
    80002fb0:	00a97933          	and	s2,s2,a0
    80002fb4:	01695933          	srl	s2,s2,s6
    80002fb8:	01897713          	andi	a4,s2,24
    80002fbc:	47e1                	li	a5,24
    80002fbe:	8526                	mv	a0,s1
    80002fc0:	02f70763          	beq	a4,a5,80002fee <pmp_get+0x98>
    80002fc4:	a93ff0ef          	jal	ra,80002a56 <csr_read_num>
    80002fc8:	050a                	slli	a0,a0,0x2
    80002fca:	4789                	li	a5,2
    80002fcc:	0129b023          	sd	s2,0(s3)
    80002fd0:	00aa3023          	sd	a0,0(s4)
    80002fd4:	00fab023          	sd	a5,0(s5)
    80002fd8:	70e2                	ld	ra,56(sp)
    80002fda:	7442                	ld	s0,48(sp)
    80002fdc:	74a2                	ld	s1,40(sp)
    80002fde:	7902                	ld	s2,32(sp)
    80002fe0:	69e2                	ld	s3,24(sp)
    80002fe2:	6a42                	ld	s4,16(sp)
    80002fe4:	6aa2                	ld	s5,8(sp)
    80002fe6:	6b02                	ld	s6,0(sp)
    80002fe8:	4501                	li	a0,0
    80002fea:	6121                	addi	sp,sp,64
    80002fec:	8082                	ret
    80002fee:	a69ff0ef          	jal	ra,80002a56 <csr_read_num>
    80002ff2:	57fd                	li	a5,-1
    80002ff4:	02f50863          	beq	a0,a5,80003024 <pmp_get+0xce>
    80002ff8:	fff54713          	not	a4,a0
    80002ffc:	00177793          	andi	a5,a4,1
    80003000:	c789                	beqz	a5,8000300a <pmp_get+0xb4>
    80003002:	478d                	li	a5,3
    80003004:	050a                	slli	a0,a0,0x2
    80003006:	b7d9                	j	80002fcc <pmp_get+0x76>
    80003008:	87b2                	mv	a5,a2
    8000300a:	8305                	srli	a4,a4,0x1
    8000300c:	00177693          	andi	a3,a4,1
    80003010:	00178613          	addi	a2,a5,1
    80003014:	daf5                	beqz	a3,80003008 <pmp_get+0xb2>
    80003016:	577d                	li	a4,-1
    80003018:	00c71633          	sll	a2,a4,a2
    8000301c:	8d71                	and	a0,a0,a2
    8000301e:	0791                	addi	a5,a5,4
    80003020:	050a                	slli	a0,a0,0x2
    80003022:	b76d                	j	80002fcc <pmp_get+0x76>
    80003024:	04000793          	li	a5,64
    80003028:	4501                	li	a0,0
    8000302a:	b74d                	j	80002fcc <pmp_get+0x76>
    8000302c:	5575                	li	a0,-3
    8000302e:	8082                	ret

0000000080003030 <atomic_read>:
    80003030:	1141                	addi	sp,sp,-16
    80003032:	e422                	sd	s0,8(sp)
    80003034:	0800                	addi	s0,sp,16
    80003036:	6108                	ld	a0,0(a0)
    80003038:	0aa0000f          	fence	ir,ir
    8000303c:	6422                	ld	s0,8(sp)
    8000303e:	0141                	addi	sp,sp,16
    80003040:	8082                	ret

0000000080003042 <atomic_write>:
    80003042:	1141                	addi	sp,sp,-16
    80003044:	e422                	sd	s0,8(sp)
    80003046:	0800                	addi	s0,sp,16
    80003048:	e10c                	sd	a1,0(a0)
    8000304a:	0550000f          	fence	ow,ow
    8000304e:	6422                	ld	s0,8(sp)
    80003050:	0141                	addi	sp,sp,16
    80003052:	8082                	ret

0000000080003054 <atomic_add_return>:
    80003054:	1141                	addi	sp,sp,-16
    80003056:	e422                	sd	s0,8(sp)
    80003058:	0800                	addi	s0,sp,16
    8000305a:	06b527af          	amoadd.w.aqrl	a5,a1,(a0)
    8000305e:	6422                	ld	s0,8(sp)
    80003060:	00f58533          	add	a0,a1,a5
    80003064:	0141                	addi	sp,sp,16
    80003066:	8082                	ret

0000000080003068 <atomic_sub_return>:
    80003068:	1141                	addi	sp,sp,-16
    8000306a:	e422                	sd	s0,8(sp)
    8000306c:	0800                	addi	s0,sp,16
    8000306e:	40b007b3          	neg	a5,a1
    80003072:	06f527af          	amoadd.w.aqrl	a5,a5,(a0)
    80003076:	6422                	ld	s0,8(sp)
    80003078:	40b78533          	sub	a0,a5,a1
    8000307c:	0141                	addi	sp,sp,16
    8000307e:	8082                	ret

0000000080003080 <atomic_cmpxchg>:
    80003080:	1141                	addi	sp,sp,-16
    80003082:	e422                	sd	s0,8(sp)
    80003084:	0800                	addi	s0,sp,16
    80003086:	87aa                	mv	a5,a0
    80003088:	0f50000f          	fence	iorw,ow
    8000308c:	1407b52f          	lr.d.aq	a0,(a5)
    80003090:	00b51563          	bne	a0,a1,8000309a <atomic_cmpxchg+0x1a>
    80003094:	1cc7b72f          	sc.d.aq	a4,a2,(a5)
    80003098:	fb75                	bnez	a4,8000308c <atomic_cmpxchg+0xc>
    8000309a:	6422                	ld	s0,8(sp)
    8000309c:	0141                	addi	sp,sp,16
    8000309e:	8082                	ret

00000000800030a0 <atomic_xchg>:
    800030a0:	7179                	addi	sp,sp,-48
    800030a2:	f422                	sd	s0,40(sp)
    800030a4:	1800                	addi	s0,sp,48
    800030a6:	fcb43c23          	sd	a1,-40(s0)
    800030aa:	fd843783          	ld	a5,-40(s0)
    800030ae:	fef43023          	sd	a5,-32(s0)
    800030b2:	fe043783          	ld	a5,-32(s0)
    800030b6:	0ef537af          	amoswap.d.aqrl	a5,a5,(a0)
    800030ba:	fef43423          	sd	a5,-24(s0)
    800030be:	fe843503          	ld	a0,-24(s0)
    800030c2:	7422                	ld	s0,40(sp)
    800030c4:	6145                	addi	sp,sp,48
    800030c6:	8082                	ret

00000000800030c8 <atomic_raw_xchg_uint>:
    800030c8:	1101                	addi	sp,sp,-32
    800030ca:	ec22                	sd	s0,24(sp)
    800030cc:	1000                	addi	s0,sp,32
    800030ce:	feb42223          	sw	a1,-28(s0)
    800030d2:	fe442783          	lw	a5,-28(s0)
    800030d6:	2781                	sext.w	a5,a5
    800030d8:	fef42423          	sw	a5,-24(s0)
    800030dc:	fe842783          	lw	a5,-24(s0)
    800030e0:	2781                	sext.w	a5,a5
    800030e2:	0ef527af          	amoswap.w.aqrl	a5,a5,(a0)
    800030e6:	fef42623          	sw	a5,-20(s0)
    800030ea:	fec42503          	lw	a0,-20(s0)
    800030ee:	6462                	ld	s0,24(sp)
    800030f0:	2501                	sext.w	a0,a0
    800030f2:	6105                	addi	sp,sp,32
    800030f4:	8082                	ret

00000000800030f6 <atomic_raw_xchg_ulong>:
    800030f6:	7179                	addi	sp,sp,-48
    800030f8:	f422                	sd	s0,40(sp)
    800030fa:	1800                	addi	s0,sp,48
    800030fc:	fcb43c23          	sd	a1,-40(s0)
    80003100:	fd843783          	ld	a5,-40(s0)
    80003104:	fef43023          	sd	a5,-32(s0)
    80003108:	fe043783          	ld	a5,-32(s0)
    8000310c:	0ef537af          	amoswap.d.aqrl	a5,a5,(a0)
    80003110:	fef43423          	sd	a5,-24(s0)
    80003114:	fe843503          	ld	a0,-24(s0)
    80003118:	7422                	ld	s0,40(sp)
    8000311a:	6145                	addi	sp,sp,48
    8000311c:	8082                	ret

000000008000311e <atomic_raw_set_bit>:
    8000311e:	41f5579b          	sraiw	a5,a0,0x1f
    80003122:	01a7d79b          	srliw	a5,a5,0x1a
    80003126:	9d3d                	addw	a0,a0,a5
    80003128:	1141                	addi	sp,sp,-16
    8000312a:	03f57713          	andi	a4,a0,63
    8000312e:	4065551b          	sraiw	a0,a0,0x6
    80003132:	e422                	sd	s0,8(sp)
    80003134:	9f1d                	subw	a4,a4,a5
    80003136:	0800                	addi	s0,sp,16
    80003138:	050e                	slli	a0,a0,0x3
    8000313a:	4785                	li	a5,1
    8000313c:	00e797b3          	sll	a5,a5,a4
    80003140:	95aa                	add	a1,a1,a0
    80003142:	46f5b52f          	amoor.d.aqrl	a0,a5,(a1)
    80003146:	6422                	ld	s0,8(sp)
    80003148:	2501                	sext.w	a0,a0
    8000314a:	0141                	addi	sp,sp,16
    8000314c:	8082                	ret

000000008000314e <atomic_raw_clear_bit>:
    8000314e:	41f5579b          	sraiw	a5,a0,0x1f
    80003152:	01a7d79b          	srliw	a5,a5,0x1a
    80003156:	9d3d                	addw	a0,a0,a5
    80003158:	03f57713          	andi	a4,a0,63
    8000315c:	1141                	addi	sp,sp,-16
    8000315e:	9f1d                	subw	a4,a4,a5
    80003160:	4065551b          	sraiw	a0,a0,0x6
    80003164:	4785                	li	a5,1
    80003166:	e422                	sd	s0,8(sp)
    80003168:	050e                	slli	a0,a0,0x3
    8000316a:	0800                	addi	s0,sp,16
    8000316c:	00e797b3          	sll	a5,a5,a4
    80003170:	95aa                	add	a1,a1,a0
    80003172:	fff7c513          	not	a0,a5
    80003176:	66a5b52f          	amoand.d.aqrl	a0,a0,(a1)
    8000317a:	6422                	ld	s0,8(sp)
    8000317c:	2501                	sext.w	a0,a0
    8000317e:	0141                	addi	sp,sp,16
    80003180:	8082                	ret

0000000080003182 <atomic_set_bit>:
    80003182:	41f5579b          	sraiw	a5,a0,0x1f
    80003186:	01a7d79b          	srliw	a5,a5,0x1a
    8000318a:	9d3d                	addw	a0,a0,a5
    8000318c:	1141                	addi	sp,sp,-16
    8000318e:	03f57713          	andi	a4,a0,63
    80003192:	4065551b          	sraiw	a0,a0,0x6
    80003196:	e422                	sd	s0,8(sp)
    80003198:	9f1d                	subw	a4,a4,a5
    8000319a:	0800                	addi	s0,sp,16
    8000319c:	050e                	slli	a0,a0,0x3
    8000319e:	4785                	li	a5,1
    800031a0:	00e797b3          	sll	a5,a5,a4
    800031a4:	95aa                	add	a1,a1,a0
    800031a6:	46f5b52f          	amoor.d.aqrl	a0,a5,(a1)
    800031aa:	6422                	ld	s0,8(sp)
    800031ac:	2501                	sext.w	a0,a0
    800031ae:	0141                	addi	sp,sp,16
    800031b0:	8082                	ret

00000000800031b2 <atomic_clear_bit>:
    800031b2:	41f5579b          	sraiw	a5,a0,0x1f
    800031b6:	01a7d79b          	srliw	a5,a5,0x1a
    800031ba:	9d3d                	addw	a0,a0,a5
    800031bc:	03f57713          	andi	a4,a0,63
    800031c0:	1141                	addi	sp,sp,-16
    800031c2:	9f1d                	subw	a4,a4,a5
    800031c4:	4065551b          	sraiw	a0,a0,0x6
    800031c8:	4785                	li	a5,1
    800031ca:	e422                	sd	s0,8(sp)
    800031cc:	050e                	slli	a0,a0,0x3
    800031ce:	0800                	addi	s0,sp,16
    800031d0:	00e797b3          	sll	a5,a5,a4
    800031d4:	95aa                	add	a1,a1,a0
    800031d6:	fff7c513          	not	a0,a5
    800031da:	66a5b52f          	amoand.d.aqrl	a0,a0,(a1)
    800031de:	6422                	ld	s0,8(sp)
    800031e0:	2501                	sext.w	a0,a0
    800031e2:	0141                	addi	sp,sp,16
    800031e4:	8082                	ret

00000000800031e6 <spin_lock_check>:
    800031e6:	1141                	addi	sp,sp,-16
    800031e8:	e422                	sd	s0,8(sp)
    800031ea:	0800                	addi	s0,sp,16
    800031ec:	6108                	ld	a0,0(a0)
    800031ee:	6422                	ld	s0,8(sp)
    800031f0:	00a03533          	snez	a0,a0
    800031f4:	0141                	addi	sp,sp,16
    800031f6:	8082                	ret

00000000800031f8 <spin_trylock>:
    800031f8:	1141                	addi	sp,sp,-16
    800031fa:	e422                	sd	s0,8(sp)
    800031fc:	0800                	addi	s0,sp,16
    800031fe:	4785                	li	a5,1
    80003200:	08f527af          	amoswap.w	a5,a5,(a0)
    80003204:	0230000f          	fence	r,rw
    80003208:	6422                	ld	s0,8(sp)
    8000320a:	2781                	sext.w	a5,a5
    8000320c:	0017b513          	seqz	a0,a5
    80003210:	0141                	addi	sp,sp,16
    80003212:	8082                	ret

0000000080003214 <spin_lock>:
    80003214:	1141                	addi	sp,sp,-16
    80003216:	e422                	sd	s0,8(sp)
    80003218:	0800                	addi	s0,sp,16
    8000321a:	4705                	li	a4,1
    8000321c:	611c                	ld	a5,0(a0)
    8000321e:	fffd                	bnez	a5,8000321c <spin_lock+0x8>
    80003220:	08e527af          	amoswap.w	a5,a4,(a0)
    80003224:	0230000f          	fence	r,rw
    80003228:	2781                	sext.w	a5,a5
    8000322a:	fbed                	bnez	a5,8000321c <spin_lock+0x8>
    8000322c:	6422                	ld	s0,8(sp)
    8000322e:	0141                	addi	sp,sp,16
    80003230:	8082                	ret

0000000080003232 <spin_unlock>:
    80003232:	1141                	addi	sp,sp,-16
    80003234:	e422                	sd	s0,8(sp)
    80003236:	0800                	addi	s0,sp,16
    80003238:	0310000f          	fence	rw,w
    8000323c:	6422                	ld	s0,8(sp)
    8000323e:	00053023          	sd	zero,0(a0)
    80003242:	0141                	addi	sp,sp,16
    80003244:	8082                	ret

0000000080003246 <__bitmap_and>:
    80003246:	1141                	addi	sp,sp,-16
    80003248:	03f6879b          	addiw	a5,a3,63
    8000324c:	e422                	sd	s0,8(sp)
    8000324e:	41f7d81b          	sraiw	a6,a5,0x1f
    80003252:	0800                	addi	s0,sp,16
    80003254:	01a8581b          	srliw	a6,a6,0x1a
    80003258:	00f8083b          	addw	a6,a6,a5
    8000325c:	00d05f63          	blez	a3,8000327a <__bitmap_and+0x34>
    80003260:	4068581b          	sraiw	a6,a6,0x6
    80003264:	4701                	li	a4,0
    80003266:	619c                	ld	a5,0(a1)
    80003268:	6214                	ld	a3,0(a2)
    8000326a:	2705                	addiw	a4,a4,1
    8000326c:	05a1                	addi	a1,a1,8
    8000326e:	8ff5                	and	a5,a5,a3
    80003270:	e11c                	sd	a5,0(a0)
    80003272:	0621                	addi	a2,a2,8
    80003274:	0521                	addi	a0,a0,8
    80003276:	ff0748e3          	blt	a4,a6,80003266 <__bitmap_and+0x20>
    8000327a:	6422                	ld	s0,8(sp)
    8000327c:	0141                	addi	sp,sp,16
    8000327e:	8082                	ret

0000000080003280 <__bitmap_or>:
    80003280:	1141                	addi	sp,sp,-16
    80003282:	03f6879b          	addiw	a5,a3,63
    80003286:	e422                	sd	s0,8(sp)
    80003288:	41f7d81b          	sraiw	a6,a5,0x1f
    8000328c:	0800                	addi	s0,sp,16
    8000328e:	01a8581b          	srliw	a6,a6,0x1a
    80003292:	00f8083b          	addw	a6,a6,a5
    80003296:	00d05f63          	blez	a3,800032b4 <__bitmap_or+0x34>
    8000329a:	4068581b          	sraiw	a6,a6,0x6
    8000329e:	4701                	li	a4,0
    800032a0:	619c                	ld	a5,0(a1)
    800032a2:	6214                	ld	a3,0(a2)
    800032a4:	2705                	addiw	a4,a4,1
    800032a6:	05a1                	addi	a1,a1,8
    800032a8:	8fd5                	or	a5,a5,a3
    800032aa:	e11c                	sd	a5,0(a0)
    800032ac:	0621                	addi	a2,a2,8
    800032ae:	0521                	addi	a0,a0,8
    800032b0:	ff0748e3          	blt	a4,a6,800032a0 <__bitmap_or+0x20>
    800032b4:	6422                	ld	s0,8(sp)
    800032b6:	0141                	addi	sp,sp,16
    800032b8:	8082                	ret

00000000800032ba <__bitmap_xor>:
    800032ba:	1141                	addi	sp,sp,-16
    800032bc:	03f6879b          	addiw	a5,a3,63
    800032c0:	e422                	sd	s0,8(sp)
    800032c2:	41f7d81b          	sraiw	a6,a5,0x1f
    800032c6:	0800                	addi	s0,sp,16
    800032c8:	01a8581b          	srliw	a6,a6,0x1a
    800032cc:	00f8083b          	addw	a6,a6,a5
    800032d0:	00d05f63          	blez	a3,800032ee <__bitmap_xor+0x34>
    800032d4:	4068581b          	sraiw	a6,a6,0x6
    800032d8:	4701                	li	a4,0
    800032da:	619c                	ld	a5,0(a1)
    800032dc:	6214                	ld	a3,0(a2)
    800032de:	2705                	addiw	a4,a4,1
    800032e0:	05a1                	addi	a1,a1,8
    800032e2:	8fb5                	xor	a5,a5,a3
    800032e4:	e11c                	sd	a5,0(a0)
    800032e6:	0621                	addi	a2,a2,8
    800032e8:	0521                	addi	a0,a0,8
    800032ea:	ff0748e3          	blt	a4,a6,800032da <__bitmap_xor+0x20>
    800032ee:	6422                	ld	s0,8(sp)
    800032f0:	0141                	addi	sp,sp,16
    800032f2:	8082                	ret

00000000800032f4 <find_first_bit>:
    800032f4:	1141                	addi	sp,sp,-16
    800032f6:	e422                	sd	s0,8(sp)
    800032f8:	0800                	addi	s0,sp,16
    800032fa:	fc05f793          	andi	a5,a1,-64
    800032fe:	c3c1                	beqz	a5,8000337e <find_first_bit+0x8a>
    80003300:	611c                	ld	a5,0(a0)
    80003302:	0521                	addi	a0,a0,8
    80003304:	c791                	beqz	a5,80003310 <find_first_bit+0x1c>
    80003306:	a8bd                	j	80003384 <find_first_bit+0x90>
    80003308:	0521                	addi	a0,a0,8
    8000330a:	ff853703          	ld	a4,-8(a0)
    8000330e:	e31d                	bnez	a4,80003334 <find_first_bit+0x40>
    80003310:	04078793          	addi	a5,a5,64
    80003314:	40f586b3          	sub	a3,a1,a5
    80003318:	fc06f713          	andi	a4,a3,-64
    8000331c:	f775                	bnez	a4,80003308 <find_first_bit+0x14>
    8000331e:	cea1                	beqz	a3,80003376 <find_first_bit+0x82>
    80003320:	04000713          	li	a4,64
    80003324:	610c                	ld	a1,0(a0)
    80003326:	40d7063b          	subw	a2,a4,a3
    8000332a:	577d                	li	a4,-1
    8000332c:	00c75733          	srl	a4,a4,a2
    80003330:	8f6d                	and	a4,a4,a1
    80003332:	c329                	beqz	a4,80003374 <find_first_bit+0x80>
    80003334:	02071613          	slli	a2,a4,0x20
    80003338:	9201                	srli	a2,a2,0x20
    8000333a:	4681                	li	a3,0
    8000333c:	e601                	bnez	a2,80003344 <find_first_bit+0x50>
    8000333e:	9301                	srli	a4,a4,0x20
    80003340:	02000693          	li	a3,32
    80003344:	03071613          	slli	a2,a4,0x30
    80003348:	9241                	srli	a2,a2,0x30
    8000334a:	e219                	bnez	a2,80003350 <find_first_bit+0x5c>
    8000334c:	26c1                	addiw	a3,a3,16
    8000334e:	8341                	srli	a4,a4,0x10
    80003350:	0ff77613          	andi	a2,a4,255
    80003354:	e219                	bnez	a2,8000335a <find_first_bit+0x66>
    80003356:	26a1                	addiw	a3,a3,8
    80003358:	8321                	srli	a4,a4,0x8
    8000335a:	00f77613          	andi	a2,a4,15
    8000335e:	e219                	bnez	a2,80003364 <find_first_bit+0x70>
    80003360:	2691                	addiw	a3,a3,4
    80003362:	8311                	srli	a4,a4,0x4
    80003364:	00377613          	andi	a2,a4,3
    80003368:	e219                	bnez	a2,8000336e <find_first_bit+0x7a>
    8000336a:	2689                	addiw	a3,a3,2
    8000336c:	8309                	srli	a4,a4,0x2
    8000336e:	8b05                	andi	a4,a4,1
    80003370:	e311                	bnez	a4,80003374 <find_first_bit+0x80>
    80003372:	2685                	addiw	a3,a3,1
    80003374:	97b6                	add	a5,a5,a3
    80003376:	6422                	ld	s0,8(sp)
    80003378:	853e                	mv	a0,a5
    8000337a:	0141                	addi	sp,sp,16
    8000337c:	8082                	ret
    8000337e:	86ae                	mv	a3,a1
    80003380:	f2c5                	bnez	a3,80003320 <find_first_bit+0x2c>
    80003382:	bfd5                	j	80003376 <find_first_bit+0x82>
